(dp1
S'OriginalConfig'
p2
ccopy_reg
_reconstructor
p3
(cWMCore.Configuration
Configuration
p4
c__builtin__
object
p5
NtRp6
(dp7
S'Site'
p8
g3
(cWMCore.Configuration
ConfigSection
p9
g5
NtRp10
(dp11
S'_internal_skipChecks'
p12
I00
sS'_internal_documentation'
p13
S''
sS'_internal_settings'
p14
c__builtin__
set
p15
((lp16
S'storageSite'
p17
atRp18
sS'_internal_name'
p19
g8
sS'_internal_docstrings'
p20
(dp21
sS'_internal_children'
p22
g15
((ltRp23
sg17
S'T2_CH_CERN'
p24
sS'_internal_parent_ref'
p25
NsbsS'_internal_sections'
p26
(lp27
S'General'
p28
aS'JobType'
p29
aS'Data'
p30
ag8
aS'User'
p31
aS'Debug'
p32
asg28
g3
(g9
g5
NtRp33
(dp34
g12
I00
sg13
S''
sg14
g15
((lp35
S'transferOutputs'
p36
aS'transferLogs'
p37
aS'requestName'
p38
atRp39
sg19
g28
sg20
(dp40
sg36
I01
sg22
g15
((ltRp41
sg38
S'JetHT_Run2016C-03Feb2017-v1'
p42
sg25
Nsg37
I00
sbsS'_internal_webapps'
p43
(lp44
sg31
g3
(g9
g5
NtRp45
(dp46
g12
I00
sg13
S''
sg14
g15
((ltRp47
sg19
g31
sg20
(dp48
sg22
g15
((ltRp49
sg25
NsbsS'_internal_components'
p50
(lp51
sg32
g3
(g9
g5
NtRp52
(dp53
g12
I00
sg13
S''
sg14
g15
((ltRp54
sg19
g32
sg20
(dp55
sg22
g15
((ltRp56
sg25
Nsbsg30
g3
(g9
g5
NtRp57
(dp58
S'inputDataset'
p59
S'/JetHT/Run2016C-03Feb2017-v1/MINIAOD'
p60
sg12
I00
sS'splitting'
p61
S'LumiBased'
p62
sS'unitsPerJob'
p63
I50
sg13
S''
sg14
g15
((lp64
g59
aS'publication'
p65
ag63
ag61
aS'inputDBS'
p66
aS'lumiMask'
p67
aS'outLFNDirBase'
p68
atRp69
sg19
g30
sg66
S'global'
p70
sg20
(dp71
sg22
g15
((ltRp72
sg68
S'/store/user/gbakas/ttbar/'
p73
sg25
Nsg67
S'https://cms-service-dqm.web.cern.ch/cms-service-dqm/CAF/certification/Collisions16/13TeV/ReReco/Final/Cert_271036-284044_13TeV_23Sep2016ReReco_Collisions16_JSON.txt'
p74
sg65
I00
sbsg29
g3
(g9
g5
NtRp75
(dp76
g12
I00
sg13
S''
sg14
g15
((lp77
S'psetName'
p78
aS'pluginName'
p79
aS'maxJobRuntimeMin'
p80
aS'allowUndistributedCMSSW'
p81
atRp82
sg19
g29
sg20
(dp83
sg79
S'Analysis'
p84
sg22
g15
((ltRp85
sg81
I01
sg78
S'flat-data-cfg.py'
p86
sg25
Nsg80
I2750
sbsbsS'voGroup'
p87
S''
sS'Server'
p88
S'cmsweb.cern.ch'
p89
sS'instance'
p90
S'prod'
p91
sS'RequestName'
p92
V181101_141220:gbakas_crab_JetHT_Run2016C-03Feb2017-v1
p93
sS'voRole'
p94
S'NULL'
p95
sS'Port'
p96
S''
s.