ccopy_reg
_reconstructor
p0
(cFWCore.ParameterSet.Config
Process
p1
c__builtin__
object
p2
Ntp3
Rp4
(dp5
S'ak4JPTL1L2L3Residual'
p6
g0
(cFWCore.ParameterSet.Modules
ESProducer
p7
g2
Ntp8
Rp9
(dp10
S'_Parameterizable__parameterNames'
p11
(lp12
S'correctors'
p13
asS'_isFrozen'
p14
I00
sS'_isModified'
p15
I00
sS'_lineNumber'
p16
I40
sS'_filename'
p17
S'/cvmfs/cms.cern.ch/slc6_amd64_gcc530/cms/cmssw/CMSSW_8_0_6/python/FWCore/ParameterSet/Modules.py'
p18
sg13
g0
(cFWCore.ParameterSet.Types
vstring
p19
c__builtin__
list
p20
(lp21
S'ak4L1JPTOffset'
p22
aS'ak4JPTL2Relative'
p23
aS'ak4JPTL3Absolute'
p24
aS'ak4JPTResidual'
p25
atp26
Rp27
(dp28
g14
I00
sS'_ParameterTypeBase__isTracked'
p29
I01
sg15
I00
sS'_nPerLine'
p30
I1
sbsS'_Labelable__label'
p31
g6
sS'_TypedParameterizable__type'
p32
S'JetCorrectionESChain'
p33
sbsS'ak7CaloL1Fastjet'
p34
g0
(g7
g2
Ntp35
Rp36
(dp37
g11
(lp38
S'srcRho'
p39
aS'algorithm'
p40
aS'level'
p41
asg14
I00
sg15
I00
sg40
g0
(cFWCore.ParameterSet.Types
string
p42
g2
Ntp43
Rp44
(dp45
g14
I00
sg29
I01
sS'_value'
p46
S'AK7Calo'
p47
sg15
I01
sbsg41
g0
(g42
g2
Ntp48
Rp49
(dp50
g14
I00
sg29
I01
sg46
S'L1FastJet'
p51
sg15
I00
sbsg17
S'/cvmfs/cms.cern.ch/slc6_amd64_gcc530/cms/cmssw/CMSSW_8_0_6/python/JetMETCorrections/Configuration/JetCorrectionServicesAllAlgos_cff.py'
p52
sg16
I43
sg39
g0
(cFWCore.ParameterSet.Types
InputTag
p53
g2
Ntp54
Rp55
(dp56
g14
I00
sg29
I01
sg15
I00
sS'_InputTag__moduleLabel'
p57
S'fixedGridRhoFastjetAllCalo'
p58
sS'_InputTag__productInstance'
p59
S''
p60
sS'_InputTag__processName'
p61
g60
sbsg31
g34
sg32
S'L1FastjetCorrectionESProducer'
p62
sbsS'ak10PFCHSL1L2L3Residual'
p63
g0
(g7
g2
Ntp64
Rp65
(dp66
g11
(lp67
g13
asg14
I00
sg15
I00
sg16
I40
sg17
g18
sg13
g0
(g19
g20
(lp68
S'ak10PFCHSL1Offset'
p69
aS'ak10PFCHSL2Relative'
p70
aS'ak10PFCHSL3Absolute'
p71
aS'ak10PFCHSResidual'
p72
atp73
Rp74
(dp75
g14
I00
sg29
I01
sg15
I00
sg30
I1
sbsg31
g63
sg32
g33
sbsS'ak7PFCHSL1Fastjet'
p76
g0
(g7
g2
Ntp77
Rp78
(dp79
g11
(lp80
g39
ag40
ag41
asg14
I00
sg15
I00
sg40
g0
(g42
g2
Ntp81
Rp82
(dp83
g14
I00
sg29
I01
sg46
S'AK7PFchs'
p84
sg15
I01
sbsg41
g0
(g42
g2
Ntp85
Rp86
(dp87
g14
I00
sg29
I01
sg46
g51
sg15
I00
sbsg17
g52
sg16
I59
sg39
g0
(g53
g2
Ntp88
Rp89
(dp90
g14
I00
sg29
I01
sg15
I00
sg57
S'fixedGridRhoFastjetAll'
p91
sg59
g60
sg61
g60
sbsg31
g76
sg32
g62
sbsS'ak2PFL3Absolute'
p92
g0
(g7
g2
Ntp93
Rp94
(dp95
g11
(lp96
g40
ag41
asg14
I00
sg15
I00
sg40
g0
(g42
g2
Ntp97
Rp98
(dp99
g14
I00
sg29
I01
sg46
S'AK2PF'
p100
sg15
I01
sbsg41
g0
(g42
g2
Ntp101
Rp102
(dp103
g14
I00
sg29
I01
sg46
S'L3Absolute'
p104
sg15
I00
sbsg17
g52
sg16
I112
sg31
g92
sg32
S'LXXXCorrectionESProducer'
p105
sbsS'kt6PFL1L2L3Residual'
p106
g0
(g7
g2
Ntp107
Rp108
(dp109
g11
(lp110
g13
asg14
I00
sg15
I00
sg16
I40
sg17
g18
sg13
g0
(g19
g20
(lp111
S'kt6PFL1Offset'
p112
aS'kt6PFL2Relative'
p113
aS'kt6PFL3Absolute'
p114
aS'kt6PFResidual'
p115
atp116
Rp117
(dp118
g14
I00
sg29
I01
sg15
I00
sg30
I1
sbsg31
g106
sg32
g33
sbsS'ak8PFL1FastjetL2L3Residual'
p119
g0
(g7
g2
Ntp120
Rp121
(dp122
g11
(lp123
g13
asg14
I00
sg15
I00
sg16
I40
sg17
g18
sg13
g0
(g19
g20
(lp124
S'ak8PFL1Fastjet'
p125
aS'ak8PFL2Relative'
p126
aS'ak8PFL3Absolute'
p127
aS'ak8PFResidual'
p128
atp129
Rp130
(dp131
g14
I00
sg29
I01
sg15
I00
sg30
I1
sbsg31
g119
sg32
g33
sbsS'ak4CaloL1Offset'
p132
g0
(g7
g2
Ntp133
Rp134
(dp135
g11
(lp136
S'minVtxNdof'
p137
aS'vertexCollection'
p138
ag40
ag41
asg14
I00
sg15
I00
sg40
g0
(g42
g2
Ntp139
Rp140
(dp141
g14
I00
sg29
I01
sg46
S'AK5Calo'
p142
sg15
I00
sbsg137
g0
(cFWCore.ParameterSet.Types
int32
p143
g2
Ntp144
Rp145
(dp146
g14
I00
sg29
I01
sg46
I4
sg15
I00
sbsg17
g18
sg41
g0
(g42
g2
Ntp147
Rp148
(dp149
g14
I00
sg29
I01
sg46
S'L1Offset'
p150
sg15
I00
sbsg138
g0
(g42
g2
Ntp151
Rp152
(dp153
g14
I00
sg29
I01
sg46
S'offlinePrimaryVertices'
p154
sg15
I00
sbsg16
I40
sg31
g132
sg32
S'L1OffsetCorrectionESProducer'
p155
sbsS'kt4PFL2L3'
p156
g0
(g7
g2
Ntp157
Rp158
(dp159
g11
(lp160
g13
asg14
I00
sg15
I00
sg16
I40
sg17
g18
sg13
g0
(g19
g20
(lp161
S'kt4PFL2Relative'
p162
aS'kt4PFL3Absolute'
p163
atp164
Rp165
(dp166
g14
I00
sg29
I01
sg15
I00
sg30
I1
sbsg31
g156
sg32
g33
sbsS'kt6PFL1FastL2L3L6'
p167
g0
(g7
g2
Ntp168
Rp169
(dp170
g11
(lp171
g13
asg14
I00
sg15
I00
sg16
I759
sg17
g52
sg13
g0
(g19
g20
(lp172
S'ak4PFL1Fastjet'
p173
ag113
ag114
aS'kt6PFL6SLB'
p174
atp175
Rp176
(dp177
g14
I00
sg29
I01
sg15
I00
sg30
I1
sbsg31
g167
sg32
g33
sbsS'ak5PFCHSL2L3Residual'
p178
g0
(g7
g2
Ntp179
Rp180
(dp181
g11
(lp182
g13
asg14
I00
sg15
I00
sg16
I40
sg17
g18
sg13
g0
(g19
g20
(lp183
S'ak5PFCHSL2Relative'
p184
aS'ak5PFCHSL3Absolute'
p185
aS'ak5PFCHSResidual'
p186
atp187
Rp188
(dp189
g14
I00
sg29
I01
sg15
I00
sg30
I1
sbsg31
g178
sg32
g33
sbsS'ak7JPTL1FastL2L3Residual'
p190
g0
(g7
g2
Ntp191
Rp192
(dp193
g11
(lp194
g13
asg14
I00
sg15
I00
sg16
I40
sg17
g18
sg13
g0
(g19
g20
(lp195
S'ak7JPTL1Fastjet'
p196
aS'ak7L1JPTOffset'
p197
aS'ak7JPTL2Relative'
p198
aS'ak7JPTL3Absolute'
p199
aS'ak7JPTResidual'
p200
atp201
Rp202
(dp203
g14
I00
sg29
I01
sg15
I00
sg30
I1
sbsg31
g190
sg32
g33
sbsS'ak4CaloL2L3Residual'
p204
g0
(g7
g2
Ntp205
Rp206
(dp207
g11
(lp208
g13
asg14
I00
sg15
I00
sg16
I40
sg17
g18
sg13
g0
(g19
g20
(lp209
S'ak4CaloL2Relative'
p210
aS'ak4CaloL3Absolute'
p211
aS'ak4CaloResidual'
p212
atp213
Rp214
(dp215
g14
I00
sg29
I01
sg15
I00
sg30
I1
sbsg31
g204
sg32
g33
sbsS'ak8PFCHSL3Absolute'
p216
g0
(g7
g2
Ntp217
Rp218
(dp219
g11
(lp220
g40
ag41
asg14
I00
sg15
I00
sg40
g0
(g42
g2
Ntp221
Rp222
(dp223
g14
I00
sg29
I01
sg46
S'AK8PFchs'
p224
sg15
I01
sbsg41
g0
(g42
g2
Ntp225
Rp226
(dp227
g14
I00
sg29
I01
sg46
g104
sg15
I00
sbsg17
g52
sg16
I123
sg31
g216
sg32
g105
sbsS'ic5CaloL6SLB'
p228
g0
(g7
g2
Ntp229
Rp230
(dp231
g11
(lp232
S'srcBTagInfoElectron'
p233
aS'srcBTagInfoMuon'
p234
aS'addMuonToJet'
p235
ag40
ag41
asg14
I00
sg15
I00
sg40
g0
(g42
g2
Ntp236
Rp237
(dp238
g14
I00
sg29
I01
sg46
g60
sg15
I00
sbsg233
g0
(g53
g2
Ntp239
Rp240
(dp241
g14
I00
sg29
I01
sg15
I00
sg57
S'ic5CaloJetsSoftElectronTagInfos'
p242
sg61
g60
sg59
g60
sbsg17
g52
sg41
g0
(g42
g2
Ntp243
Rp244
(dp245
g14
I00
sg29
I01
sg46
S'L6SLB'
p246
sg15
I00
sbsg234
g0
(g53
g2
Ntp247
Rp248
(dp249
g14
I00
sg29
I01
sg15
I00
sg57
S'ic5CaloJetsSoftMuonTagInfos'
p250
sg61
g60
sg59
g60
sbsg16
I176
sg235
g0
(cFWCore.ParameterSet.Types
bool
p251
g2
Ntp252
Rp253
(dp254
g14
I00
sg29
I01
sg46
I01
sg15
I00
sbsg31
g228
sg32
S'L6SLBCorrectionESProducer'
p255
sbsS'ic5PFL1L2L3Residual'
p256
g0
(g7
g2
Ntp257
Rp258
(dp259
g11
(lp260
g13
asg14
I00
sg15
I00
sg16
I40
sg17
g18
sg13
g0
(g19
g20
(lp261
S'ic5PFL1Offset'
p262
aS'ic5PFL2Relative'
p263
aS'ic5PFL3Absolute'
p264
aS'ic5PFResidual'
p265
atp266
Rp267
(dp268
g14
I00
sg29
I01
sg15
I00
sg30
I1
sbsg31
g256
sg32
g33
sbsS'kt6CaloL3Absolute'
p269
g0
(g7
g2
Ntp270
Rp271
(dp272
g11
(lp273
g40
ag41
asg14
I00
sg15
I00
sg40
g0
(g42
g2
Ntp274
Rp275
(dp276
g14
I00
sg29
I01
sg46
S'KT6Calo'
p277
sg15
I01
sbsg41
g0
(g42
g2
Ntp278
Rp279
(dp280
g14
I00
sg29
I01
sg46
g104
sg15
I00
sbsg17
g52
sg16
I107
sg31
g269
sg32
g105
sbsS'_Process__InExtendCall'
p281
I00
sS'ak6PFCHSL2L3'
p282
g0
(g7
g2
Ntp283
Rp284
(dp285
g11
(lp286
g13
asg14
I00
sg15
I00
sg16
I40
sg17
g18
sg13
g0
(g19
g20
(lp287
S'ak6PFCHSL2Relative'
p288
aS'ak6PFCHSL3Absolute'
p289
atp290
Rp291
(dp292
g14
I00
sg29
I01
sg15
I00
sg30
I1
sbsg31
g282
sg32
g33
sbsg72
g0
(g7
g2
Ntp293
Rp294
(dp295
g11
(lp296
g40
ag41
asg14
I00
sg15
I00
sg40
g0
(g42
g2
Ntp297
Rp298
(dp299
g14
I00
sg29
I01
sg46
S'AK10PFchs'
p300
sg15
I01
sbsg41
g0
(g42
g2
Ntp301
Rp302
(dp303
g14
I00
sg29
I01
sg46
S'L2L3Residual'
p304
sg15
I00
sbsg17
g52
sg16
I155
sg31
g72
sg32
g105
sbsS'ak4TrackL1FastL2L3'
p305
g0
(g7
g2
Ntp306
Rp307
(dp308
g11
(lp309
g13
asg14
I00
sg15
I00
sg16
I610
sg17
g52
sg13
g0
(g19
g20
(lp310
S'ak4CaloL1Fastjet'
p311
aS'ak4TrackL2Relative'
p312
aS'ak4TrackL3Absolute'
p313
atp314
Rp315
(dp316
g14
I00
sg29
I01
sg15
I00
sg30
I1
sbsg31
g305
sg32
g33
sbsS'p'
p317
g0
(cFWCore.ParameterSet.SequenceTypes
Path
p318
g2
Ntp319
Rp320
(dp321
g14
I00
sS'_seq'
p322
g0
(cFWCore.ParameterSet.SequenceTypes
_SequenceCollection
p323
g2
Ntp324
Rp325
(dp326
S'_collection'
p327
(lp328
g0
(cFWCore.ParameterSet.Modules
EDProducer
p329
g2
Ntp330
Rp331
(dp332
g11
(lp333
S'src'
p334
aS'emf'
p335
aS'extraJPTOffset'
p336
aS'primaryVertices'
p337
aS'levels'
p338
aS'useNPV'
p339
aS'rho'
p340
aS'useRho'
p341
aS'payload'
p342
aS'flavorType'
p343
asg14
I00
sg343
g0
(g42
g2
Ntp344
Rp345
(dp346
g14
I00
sg29
I01
sg46
S'J'
p347
sg15
I00
sbsg335
g0
(g251
g2
Ntp348
Rp349
(dp350
g14
I00
sg29
I01
sg46
I00
sg15
I00
sbsg15
I00
sg334
g0
(g53
g2
Ntp351
Rp352
(dp353
g14
I00
sg29
I01
sg15
I00
sg57
S'slimmedJetsAK8'
p354
sg61
g60
sg59
g60
sbsg17
S'/afs/cern.ch/user/g/gbakas/CRAB3-jobs2016/CMSSW_8_0_6/src/UserCode/TopAnalysis/prod/ttbar/flat-data-cfg.py'
p355
sg336
g0
(g42
g2
Ntp356
Rp357
(dp358
g14
I00
sg29
I01
sg46
g51
sg15
I00
sbsg337
g0
(g53
g2
Ntp359
Rp360
(dp361
g14
I00
sg29
I01
sg15
I00
sg57
S'offlineSlimmedPrimaryVertices'
p362
sg59
g60
sg61
g60
sbsg31
S'patJetCorrFactorsReapplyJECAK8'
p363
sg338
g0
(g19
g20
(lp364
g51
aS'L2Relative'
p365
ag104
ag304
atp366
Rp367
(dp368
g14
I00
sg29
I01
sg15
I01
sg30
I1
sbsg16
I40
sg339
g0
(g251
g2
Ntp369
Rp370
(dp371
g14
I00
sg29
I01
sg46
I01
sg15
I00
sbsg340
g0
(g53
g2
Ntp372
Rp373
(dp374
g14
I00
sg29
I01
sg15
I00
sg57
g91
sg59
g60
sg61
g60
sbsg341
g0
(g251
g2
Ntp375
Rp376
(dp377
g14
I00
sg29
I01
sg46
I01
sg15
I00
sbsg342
g0
(g42
g2
Ntp378
Rp379
(dp380
g14
I00
sg29
I01
sg46
g224
sg15
I01
sbsg32
S'JetCorrFactorsProducer'
p381
sbag0
(g329
g2
Ntp382
Rp383
(dp384
g11
(lp385
S'addTagInfos'
p386
aS'jetSource'
p387
aS'jetCorrFactorsSource'
p388
aS'addDiscriminators'
p389
aS'tagInfoSources'
p390
aS'discriminatorSources'
p391
aS'addBTagInfo'
p392
aS'addJetCorrFactors'
p393
aS'userData'
p394
asg14
I00
sg15
I00
sg387
g0
(g53
g2
Ntp395
Rp396
(dp397
g14
I00
sg29
I01
sg15
I00
sg57
g354
sg61
g60
sg59
g60
sbsg17
g355
sg388
g0
(cFWCore.ParameterSet.Types
VInputTag
p398
g20
(lp399
g0
(g53
g2
Ntp400
Rp401
(dp402
g14
I00
sg29
I01
sg15
I00
sg57
g363
sg61
g60
sg59
g60
sbatp403
Rp404
(dp405
g14
I00
sg29
I01
sg15
I00
sbsg389
g0
(g251
g2
Ntp406
Rp407
(dp408
g14
I00
sg29
I01
sg46
I01
sg15
I00
sbsg31
S'patJetsReapplyJECAK8'
p409
sg16
I45
sg390
g0
(g398
g20
(lp410
tp411
Rp412
(dp413
g14
I00
sg29
I01
sg15
I00
sbsg391
g0
(g398
g20
(lp414
tp415
Rp416
(dp417
g14
I00
sg29
I01
sg15
I00
sbsg392
g0
(g251
g2
Ntp418
Rp419
(dp420
g14
I00
sg29
I01
sg46
I01
sg15
I00
sbsg393
g0
(g251
g2
Ntp421
Rp422
(dp423
g14
I00
sg29
I01
sg46
I01
sg15
I00
sbsg394
g0
(cFWCore.ParameterSet.Types
PSet
p424
g2
Ntp425
Rp426
(dp427
g14
I00
sg29
I01
sS'userCands'
p428
g0
(g424
g2
Ntp429
Rp430
(dp431
g14
I00
sg29
I01
sg334
g0
(g398
g20
(lp432
g60
atp433
Rp434
(dp435
g14
I00
sg29
I01
sg15
I00
sbsg15
I00
sg11
(lp436
g334
asbsg15
I00
sS'userInts'
p437
g0
(g424
g2
Ntp438
Rp439
(dp440
g14
I00
sg29
I01
sg334
g0
(g398
g20
(lp441
g60
atp442
Rp443
(dp444
g14
I00
sg29
I01
sg15
I00
sbsg15
I00
sg11
(lp445
g334
asbsS'userFloats'
p446
g0
(g424
g2
Ntp447
Rp448
(dp449
g14
I00
sg29
I01
sg334
g0
(g398
g20
(lp450
g60
atp451
Rp452
(dp453
g14
I00
sg29
I01
sg15
I00
sbsg15
I00
sg11
(lp454
g334
asbsg11
(lp455
g428
ag437
ag446
aS'userClasses'
p456
aS'userFunctionLabels'
p457
aS'userFunctions'
p458
asg456
g0
(g424
g2
Ntp459
Rp460
(dp461
g14
I00
sg29
I01
sg334
g0
(g398
g20
(lp462
g60
atp463
Rp464
(dp465
g14
I00
sg29
I01
sg15
I00
sbsg15
I00
sg11
(lp466
g334
asbsg457
g0
(g19
g20
(lp467
tp468
Rp469
(dp470
g14
I00
sg29
I01
sg15
I00
sg30
I1
sbsg458
g0
(g19
g20
(lp471
tp472
Rp473
(dp474
g14
I00
sg29
I01
sg15
I00
sg30
I1
sbsbsg386
g0
(g251
g2
Ntp475
Rp476
(dp477
g14
I00
sg29
I01
sg46
I00
sg15
I00
sbsg32
S'PATJetUpdater'
p478
sbag0
(cFWCore.ParameterSet.Modules
EDAnalyzer
p479
g2
Ntp480
Rp481
(dp482
g14
I00
sg16
I78
sS'triggerPrescales'
p483
g0
(g53
g2
Ntp484
Rp485
(dp486
g14
I00
sg29
I01
sg15
I00
sg57
S'patTrigger'
p487
sg61
g60
sg59
g60
sbsS'minMuPt'
p488
g0
(cFWCore.ParameterSet.Types
double
p489
g2
Ntp490
Rp491
(dp492
g14
I00
sg29
I01
sg46
I20
sg15
I00
sbsS'minElPt'
p493
g0
(g489
g2
Ntp494
Rp495
(dp496
g14
I00
sg29
I01
sg46
I20
sg15
I00
sbsS'massMin'
p497
g0
(g489
g2
Ntp498
Rp499
(dp500
g14
I00
sg29
I01
sg46
I50
sg15
I00
sbsS'etaMax'
p501
g0
(g489
g2
Ntp502
Rp503
(dp504
g14
I00
sg29
I01
sg46
F2.4
sg15
I00
sbsg32
S'BoostedTTbarFlatTreeProducer'
p505
sg11
(lp506
g483
ag488
aS'btagger'
p507
aS'triggerNames'
p508
aS'triggerResults'
p509
ag493
aS'xmlFile'
p510
aS'vertices'
p511
aS'met'
p512
ag497
aS'candidates'
p513
aS'ptMin'
p514
ag340
aS'jets'
p515
aS'muons'
p516
ag501
aS'electrons'
p517
aS'btagMin'
p518
asg510
g0
(g42
g2
Ntp519
Rp520
(dp521
g14
I00
sg29
I01
sg46
S'boosted_mva_MLP.weights.xml'
p522
sg15
I00
sbsg508
g0
(g19
g20
(lp523
S'HLT_AK8PFJet360_TrimMass30_v'
p524
aS'HLT_AK8PFJet140_v'
p525
aS'HLT_AK8PFJet200_v'
p526
aS'HLT_AK8PFJet260_v'
p527
aS'HLT_AK8PFHT750_TrimMass50_v'
p528
aS'HLT_AK8PFHT800_TrimMass50_v'
p529
aS'HLT_AK8PFHT900_TrimMass50_v'
p530
aS'HLT_AK8PFHT950_TrimMass50_v'
p531
aS'HLT_IsoMu27_v'
p532
aS'HLT_Mu50_v'
p533
atp534
Rp535
(dp536
g14
I00
sg29
I01
sg15
I00
sg30
I1
sbsg17
g355
sg513
g0
(g53
g2
Ntp537
Rp538
(dp539
g14
I00
sg29
I01
sg15
I00
sg57
S'packedPFCandidates'
p540
sg61
g60
sg59
g60
sbsg514
g0
(g489
g2
Ntp541
Rp542
(dp543
g14
I00
sg29
I01
sg46
I200
sg15
I00
sbsg509
g0
(g53
g2
Ntp544
Rp545
(dp546
g14
I00
sg29
I01
sg15
I00
sg57
S'TriggerResults'
p547
sg61
S'HLT'
p548
sg59
g60
sbsg516
g0
(g53
g2
Ntp549
Rp550
(dp551
g14
I00
sg29
I01
sg15
I00
sg57
S'slimmedMuons'
p552
sg61
g60
sg59
g60
sbsg507
g0
(g42
g2
Ntp553
Rp554
(dp555
g14
I00
sg29
I01
sg46
S'pfCombinedInclusiveSecondaryVertexV2BJetTags'
p556
sg15
I00
sbsg518
g0
(g489
g2
Ntp557
Rp558
(dp559
g14
I00
sg29
I01
sg46
F0.8484
sg15
I00
sbsg340
g0
(g53
g2
Ntp560
Rp561
(dp562
g14
I00
sg29
I01
sg15
I00
sg57
g91
sg61
g60
sg59
g60
sbsg515
g0
(g53
g2
Ntp563
Rp564
(dp565
g14
I00
sg29
I01
sg15
I00
sg57
g409
sg61
g60
sg59
g60
sbsg15
I00
sg512
g0
(g53
g2
Ntp566
Rp567
(dp568
g14
I00
sg29
I01
sg15
I00
sg57
S'slimmedMETs'
p569
sg61
g60
sg59
g60
sbsg511
g0
(g53
g2
Ntp570
Rp571
(dp572
g14
I00
sg29
I01
sg15
I00
sg57
g362
sg61
g60
sg59
g60
sbsg517
g0
(g53
g2
Ntp573
Rp574
(dp575
g14
I00
sg29
I01
sg15
I00
sg57
S'slimmedElectrons'
p576
sg61
g60
sg59
g60
sbsg31
S'boosted'
p577
sbasbsg15
I00
sg31
g317
sbsS'ak10PFL1L2L3Residual'
p578
g0
(g7
g2
Ntp579
Rp580
(dp581
g11
(lp582
g13
asg14
I00
sg15
I00
sg16
I40
sg17
g18
sg13
g0
(g19
g20
(lp583
S'ak10PFL1Offset'
p584
aS'ak10PFL2Relative'
p585
aS'ak10PFL3Absolute'
p586
aS'ak10PFResidual'
p587
atp588
Rp589
(dp590
g14
I00
sg29
I01
sg15
I00
sg30
I1
sbsg31
g578
sg32
g33
sbsS'ak4PFCHSL2Relative'
p591
g0
(g7
g2
Ntp592
Rp593
(dp594
g11
(lp595
g40
ag41
asg14
I00
sg15
I00
sg40
g0
(g42
g2
Ntp596
Rp597
(dp598
g14
I00
sg29
I01
sg46
S'AK4PFchs'
p599
sg15
I01
sbsg41
g0
(g42
g2
Ntp600
Rp601
(dp602
g14
I00
sg29
I01
sg46
g365
sg15
I00
sbsg17
S'/cvmfs/cms.cern.ch/slc6_amd64_gcc530/cms/cmssw/CMSSW_8_0_6/python/JetMETCorrections/Configuration/JetCorrectionServices_cff.py'
p603
sg16
I70
sg31
g591
sg32
g105
sbsS'kt4PFL6SLB'
p604
g0
(g7
g2
Ntp605
Rp606
(dp607
g11
(lp608
g233
ag234
ag235
ag40
ag41
asg14
I00
sg15
I00
sg40
g0
(g42
g2
Ntp609
Rp610
(dp611
g14
I00
sg29
I01
sg46
g60
sg15
I00
sbsg233
g0
(g53
g2
Ntp612
Rp613
(dp614
g14
I00
sg29
I01
sg15
I00
sg57
S'kt4PFJetsSoftElectronTagInfos'
p615
sg61
g60
sg59
g60
sbsg17
g52
sg41
g0
(g42
g2
Ntp616
Rp617
(dp618
g14
I00
sg29
I01
sg46
g246
sg15
I00
sbsg234
g0
(g53
g2
Ntp619
Rp620
(dp621
g14
I00
sg29
I01
sg15
I00
sg57
S'kt4PFJetsSoftMuonTagInfos'
p622
sg61
g60
sg59
g60
sbsg16
I185
sg235
g0
(g251
g2
Ntp623
Rp624
(dp625
g14
I00
sg29
I01
sg46
I00
sg15
I00
sbsg31
g604
sg32
g255
sbsS'ak7CaloResidual'
p626
g0
(g7
g2
Ntp627
Rp628
(dp629
g11
(lp630
g40
ag41
asg14
I00
sg15
I00
sg40
g0
(g42
g2
Ntp631
Rp632
(dp633
g14
I00
sg29
I01
sg46
g47
sg15
I01
sbsg41
g0
(g42
g2
Ntp634
Rp635
(dp636
g14
I00
sg29
I01
sg46
g304
sg15
I00
sbsg17
g52
sg16
I133
sg31
g626
sg32
g105
sbsS'ak5PFL1FastjetL2L3Residual'
p637
g0
(g7
g2
Ntp638
Rp639
(dp640
g11
(lp641
g13
asg14
I00
sg15
I00
sg16
I40
sg17
g18
sg13
g0
(g19
g20
(lp642
S'ak5PFL1Fastjet'
p643
aS'ak5PFL2Relative'
p644
aS'ak5PFL3Absolute'
p645
aS'ak5PFResidual'
p646
atp647
Rp648
(dp649
g14
I00
sg29
I01
sg15
I00
sg30
I1
sbsg31
g637
sg32
g33
sbsS'ak7PFCHSL2L3'
p650
g0
(g7
g2
Ntp651
Rp652
(dp653
g11
(lp654
g13
asg14
I00
sg15
I00
sg16
I40
sg17
g18
sg13
g0
(g19
g20
(lp655
S'ak7PFCHSL2Relative'
p656
aS'ak7PFCHSL3Absolute'
p657
atp658
Rp659
(dp660
g14
I00
sg29
I01
sg15
I00
sg30
I1
sbsg31
g650
sg32
g33
sbsS'siStripBackPlaneCorrectionDepESProducer'
p661
g0
(g7
g2
Ntp662
Rp663
(dp664
g11
(lp665
S'LatencyRecord'
p666
aS'BackPlaneCorrectionDeconvMode'
p667
aS'BackPlaneCorrectionPeakMode'
p668
asg14
I00
sg15
I00
sg16
I40
sg17
g18
sg666
g0
(g424
g2
Ntp669
Rp670
(dp671
g14
I00
sg29
I01
sg15
I00
sS'label'
p672
g0
(g42
g2
Ntp673
Rp674
(dp675
g14
I00
sg29
I00
sg46
g60
sg15
I00
sbsS'record'
p676
g0
(g42
g2
Ntp677
Rp678
(dp679
g14
I00
sg29
I01
sg46
S'SiStripLatencyRcd'
p680
sg15
I00
sbsg11
(lp681
g676
ag672
asbsg668
g0
(g424
g2
Ntp682
Rp683
(dp684
g14
I00
sg29
I01
sg15
I00
sg672
g0
(g42
g2
Ntp685
Rp686
(dp687
g14
I00
sg29
I00
sg46
S'peak'
p688
sg15
I00
sbsg676
g0
(g42
g2
Ntp689
Rp690
(dp691
g14
I00
sg29
I01
sg46
S'SiStripBackPlaneCorrectionRcd'
p692
sg15
I00
sbsg11
(lp693
g676
ag672
asbsg31
g661
sg667
g0
(g424
g2
Ntp694
Rp695
(dp696
g14
I00
sg29
I01
sg15
I00
sg672
g0
(g42
g2
Ntp697
Rp698
(dp699
g14
I00
sg29
I00
sg46
S'deconvolution'
p700
sg15
I00
sbsg676
g0
(g42
g2
Ntp701
Rp702
(dp703
g14
I00
sg29
I01
sg46
g692
sg15
I00
sbsg11
(lp704
g676
ag672
asbsg32
S'SiStripBackPlaneCorrectionDepESProducer'
p705
sbsS'ak8PFL1L2L3Residual'
p706
g0
(g7
g2
Ntp707
Rp708
(dp709
g11
(lp710
g13
asg14
I00
sg15
I00
sg16
I40
sg17
g18
sg13
g0
(g19
g20
(lp711
S'ak8PFL1Offset'
p712
ag126
ag127
ag128
atp713
Rp714
(dp715
g14
I00
sg29
I01
sg15
I00
sg30
I1
sbsg31
g706
sg32
g33
sbsS'ak4JPTL1FastL2L3Residual'
p716
g0
(g7
g2
Ntp717
Rp718
(dp719
g11
(lp720
g13
asg14
I00
sg15
I00
sg16
I40
sg17
g18
sg13
g0
(g19
g20
(lp721
S'ak4JPTL1Fastjet'
p722
ag23
ag24
ag25
atp723
Rp724
(dp725
g14
I00
sg29
I01
sg15
I00
sg30
I1
sbsg31
g716
sg32
g33
sbsS'kt6CaloL1FastL2L3L6'
p726
g0
(g7
g2
Ntp727
Rp728
(dp729
g11
(lp730
g13
asg14
I00
sg15
I00
sg16
I750
sg17
g52
sg13
g0
(g19
g20
(lp731
S'kt6CaloL1Offset'
p732
aS'kt6CaloL2Relative'
p733
ag269
aS'kt6CaloL6SLB'
p734
atp735
Rp736
(dp737
g14
I00
sg29
I01
sg15
I00
sg30
I1
sbsg31
g726
sg32
g33
sbsS'ak7PFCHSL1Offset'
p738
g0
(g7
g2
Ntp739
Rp740
(dp741
g11
(lp742
g137
ag138
ag40
ag41
asg14
I00
sg15
I00
sg40
g0
(g42
g2
Ntp743
Rp744
(dp745
g14
I00
sg29
I01
sg46
g84
sg15
I01
sbsg137
g0
(g143
g2
Ntp746
Rp747
(dp748
g14
I00
sg29
I01
sg46
I4
sg15
I00
sbsg17
g52
sg41
g0
(g42
g2
Ntp749
Rp750
(dp751
g14
I00
sg29
I01
sg46
g150
sg15
I00
sbsg138
g0
(g42
g2
Ntp752
Rp753
(dp754
g14
I00
sg29
I01
sg46
g154
sg15
I00
sbsg16
I29
sg31
g738
sg32
g155
sbsS'ak10PFL1Fastjet'
p755
g0
(g7
g2
Ntp756
Rp757
(dp758
g11
(lp759
g39
ag40
ag41
asg14
I00
sg15
I00
sg40
g0
(g42
g2
Ntp760
Rp761
(dp762
g14
I00
sg29
I01
sg46
S'AK10PF'
p763
sg15
I01
sbsg41
g0
(g42
g2
Ntp764
Rp765
(dp766
g14
I00
sg29
I01
sg46
g51
sg15
I00
sbsg17
g52
sg16
I64
sg39
g0
(g53
g2
Ntp767
Rp768
(dp769
g14
I00
sg29
I01
sg15
I00
sg57
g91
sg59
g60
sg61
g60
sbsg31
g755
sg32
g62
sbsg263
g0
(g7
g2
Ntp770
Rp771
(dp772
g11
(lp773
g40
ag41
asg14
I00
sg15
I00
sg40
g0
(g42
g2
Ntp774
Rp775
(dp776
g14
I00
sg29
I01
sg46
S'IC5PF'
p777
sg15
I01
sbsg41
g0
(g42
g2
Ntp778
Rp779
(dp780
g14
I00
sg29
I01
sg46
g365
sg15
I00
sbsg17
g52
sg16
I102
sg31
g263
sg32
g105
sbsg586
g0
(g7
g2
Ntp781
Rp782
(dp783
g11
(lp784
g40
ag41
asg14
I00
sg15
I00
sg40
g0
(g42
g2
Ntp785
Rp786
(dp787
g14
I00
sg29
I01
sg46
g763
sg15
I01
sbsg41
g0
(g42
g2
Ntp788
Rp789
(dp790
g14
I00
sg29
I01
sg46
g104
sg15
I00
sbsg17
g52
sg16
I126
sg31
g586
sg32
g105
sbsS'ak3PFCHSL2L3Residual'
p791
g0
(g7
g2
Ntp792
Rp793
(dp794
g11
(lp795
g13
asg14
I00
sg15
I00
sg16
I40
sg17
g18
sg13
g0
(g19
g20
(lp796
S'ak3PFCHSL2Relative'
p797
aS'ak3PFCHSL3Absolute'
p798
aS'ak3PFCHSResidual'
p799
atp800
Rp801
(dp802
g14
I00
sg29
I01
sg15
I00
sg30
I1
sbsg31
g791
sg32
g33
sbsS'kt6CaloL2L3'
p803
g0
(g7
g2
Ntp804
Rp805
(dp806
g11
(lp807
g13
asg14
I00
sg15
I00
sg16
I40
sg17
g18
sg13
g0
(g19
g20
(lp808
g733
ag269
atp809
Rp810
(dp811
g14
I00
sg29
I01
sg15
I00
sg30
I1
sbsg31
g803
sg32
g33
sbsS'kt6CaloL2L3Residual'
p812
g0
(g7
g2
Ntp813
Rp814
(dp815
g11
(lp816
g13
asg14
I00
sg15
I00
sg16
I40
sg17
g18
sg13
g0
(g19
g20
(lp817
g733
ag269
aS'kt6CaloResidual'
p818
atp819
Rp820
(dp821
g14
I00
sg29
I01
sg15
I00
sg30
I1
sbsg31
g812
sg32
g33
sbsS'ak1PFCHSL3Absolute'
p822
g0
(g7
g2
Ntp823
Rp824
(dp825
g11
(lp826
g40
ag41
asg14
I00
sg15
I00
sg40
g0
(g42
g2
Ntp827
Rp828
(dp829
g14
I00
sg29
I01
sg46
S'AK1PFchs'
p830
sg15
I01
sbsg41
g0
(g42
g2
Ntp831
Rp832
(dp833
g14
I00
sg29
I01
sg46
g104
sg15
I00
sbsg17
g52
sg16
I111
sg31
g822
sg32
g105
sbsS'ic5CaloL2L3Residual'
p834
g0
(g7
g2
Ntp835
Rp836
(dp837
g11
(lp838
g13
asg14
I00
sg15
I00
sg16
I40
sg17
g18
sg13
g0
(g19
g20
(lp839
S'ic5CaloL2Relative'
p840
aS'ic5CaloL3Absolute'
p841
aS'ic5CaloResidual'
p842
atp843
Rp844
(dp845
g14
I00
sg29
I01
sg15
I00
sg30
I1
sbsg31
g834
sg32
g33
sbsS'ak7PFL1Offset'
p846
g0
(g7
g2
Ntp847
Rp848
(dp849
g11
(lp850
g137
ag138
ag40
ag41
asg14
I00
sg15
I00
sg40
g0
(g42
g2
Ntp851
Rp852
(dp853
g14
I00
sg29
I01
sg46
S'AK7PF'
p854
sg15
I01
sbsg137
g0
(g143
g2
Ntp855
Rp856
(dp857
g14
I00
sg29
I01
sg46
I4
sg15
I00
sbsg17
g52
sg41
g0
(g42
g2
Ntp858
Rp859
(dp860
g14
I00
sg29
I01
sg46
g150
sg15
I00
sbsg138
g0
(g42
g2
Ntp861
Rp862
(dp863
g14
I00
sg29
I01
sg46
g154
sg15
I00
sbsg16
I28
sg31
g846
sg32
g155
sbsg409
g383
sS'ak7PFL1L2L3'
p864
g0
(g7
g2
Ntp865
Rp866
(dp867
g11
(lp868
g13
asg14
I00
sg15
I00
sg16
I40
sg17
g18
sg13
g0
(g19
g20
(lp869
g846
aS'ak7PFL2Relative'
p870
aS'ak7PFL3Absolute'
p871
atp872
Rp873
(dp874
g14
I00
sg29
I01
sg15
I00
sg30
I1
sbsg31
g864
sg32
g33
sbsS'_Process__isStrict'
p875
I00
sg174
g0
(g7
g2
Ntp876
Rp877
(dp878
g11
(lp879
g233
ag234
ag235
ag40
ag41
asg14
I00
sg15
I00
sg40
g0
(g42
g2
Ntp880
Rp881
(dp882
g14
I00
sg29
I01
sg46
g60
sg15
I00
sbsg233
g0
(g53
g2
Ntp883
Rp884
(dp885
g14
I00
sg29
I01
sg15
I00
sg57
S'kt6PFJetsSoftElectronTagInfos'
p886
sg61
g60
sg59
g60
sbsg17
g52
sg41
g0
(g42
g2
Ntp887
Rp888
(dp889
g14
I00
sg29
I01
sg46
g246
sg15
I00
sbsg234
g0
(g53
g2
Ntp890
Rp891
(dp892
g14
I00
sg29
I01
sg15
I00
sg57
S'kt6PFJetsSoftMuonTagInfos'
p893
sg61
g60
sg59
g60
sbsg16
I189
sg235
g0
(g251
g2
Ntp894
Rp895
(dp896
g14
I00
sg29
I01
sg46
I00
sg15
I00
sbsg31
g174
sg32
g255
sbsS'ak9PFCHSL2Relative'
p897
g0
(g7
g2
Ntp898
Rp899
(dp900
g11
(lp901
g40
ag41
asg14
I00
sg15
I00
sg40
g0
(g42
g2
Ntp902
Rp903
(dp904
g14
I00
sg29
I01
sg46
S'AK9PFchs'
p905
sg15
I01
sbsg41
g0
(g42
g2
Ntp906
Rp907
(dp908
g14
I00
sg29
I01
sg46
g365
sg15
I00
sbsg17
g52
sg16
I97
sg31
g897
sg32
g105
sbsS'ak9PFL2L3Residual'
p909
g0
(g7
g2
Ntp910
Rp911
(dp912
g11
(lp913
g13
asg14
I00
sg15
I00
sg16
I40
sg17
g18
sg13
g0
(g19
g20
(lp914
S'ak9PFL2Relative'
p915
aS'ak9PFL3Absolute'
p916
aS'ak9PFResidual'
p917
atp918
Rp919
(dp920
g14
I00
sg29
I01
sg15
I00
sg30
I1
sbsg31
g909
sg32
g33
sbsS'_Process__looper'
p921
NsS'ak1PFL2L3Residual'
p922
g0
(g7
g2
Ntp923
Rp924
(dp925
g11
(lp926
g13
asg14
I00
sg15
I00
sg16
I40
sg17
g18
sg13
g0
(g19
g20
(lp927
S'ak1PFL2Relative'
p928
aS'ak1PFL3Absolute'
p929
aS'ak1PFResidual'
p930
atp931
Rp932
(dp933
g14
I00
sg29
I01
sg15
I00
sg30
I1
sbsg31
g922
sg32
g33
sbsS'ak7PFL1L2L3Residual'
p934
g0
(g7
g2
Ntp935
Rp936
(dp937
g11
(lp938
g13
asg14
I00
sg15
I00
sg16
I40
sg17
g18
sg13
g0
(g19
g20
(lp939
g846
ag870
ag871
aS'ak7PFResidual'
p940
atp941
Rp942
(dp943
g14
I00
sg29
I01
sg15
I00
sg30
I1
sbsg31
g934
sg32
g33
sbsS'kt6CaloL1L2L3Residual'
p944
g0
(g7
g2
Ntp945
Rp946
(dp947
g11
(lp948
g13
asg14
I00
sg15
I00
sg16
I40
sg17
g18
sg13
g0
(g19
g20
(lp949
g732
ag733
ag269
ag818
atp950
Rp951
(dp952
g14
I00
sg29
I01
sg15
I00
sg30
I1
sbsg31
g944
sg32
g33
sbsS'ak7CaloL1L2L3'
p953
g0
(g7
g2
Ntp954
Rp955
(dp956
g11
(lp957
g13
asg14
I00
sg15
I00
sg16
I40
sg17
g18
sg13
g0
(g19
g20
(lp958
S'ak7CaloL1Offset'
p959
aS'ak7CaloL2Relative'
p960
aS'ak7CaloL3Absolute'
p961
atp962
Rp963
(dp964
g14
I00
sg29
I01
sg15
I00
sg30
I1
sbsg31
g953
sg32
g33
sbsg644
g0
(g7
g2
Ntp965
Rp966
(dp967
g11
(lp968
g40
ag41
asg14
I00
sg15
I00
sg40
g0
(g42
g2
Ntp969
Rp970
(dp971
g14
I00
sg29
I01
sg46
S'AK5PF'
p972
sg15
I01
sbsg41
g0
(g42
g2
Ntp973
Rp974
(dp975
g14
I00
sg29
I01
sg46
g365
sg15
I00
sbsg17
g52
sg16
I88
sg31
g644
sg32
g105
sbsS'kt4PFL1Offset'
p976
g0
(g7
g2
Ntp977
Rp978
(dp979
g11
(lp980
g137
ag138
ag40
ag41
asg14
I00
sg15
I00
sg40
g0
(g42
g2
Ntp981
Rp982
(dp983
g14
I00
sg29
I01
sg46
S'KT4PF'
p984
sg15
I01
sbsg137
g0
(g143
g2
Ntp985
Rp986
(dp987
g14
I00
sg29
I01
sg46
I4
sg15
I00
sbsg17
g52
sg41
g0
(g42
g2
Ntp988
Rp989
(dp990
g14
I00
sg29
I01
sg46
g150
sg15
I00
sbsg138
g0
(g42
g2
Ntp991
Rp992
(dp993
g14
I00
sg29
I01
sg46
g154
sg15
I00
sbsg16
I36
sg31
g976
sg32
g155
sbsS'kt4PFL2L3Residual'
p994
g0
(g7
g2
Ntp995
Rp996
(dp997
g11
(lp998
g13
asg14
I00
sg15
I00
sg16
I40
sg17
g18
sg13
g0
(g19
g20
(lp999
g162
ag163
aS'kt4PFResidual'
p1000
atp1001
Rp1002
(dp1003
g14
I00
sg29
I01
sg15
I00
sg30
I1
sbsg31
g994
sg32
g33
sbsg313
g0
(g7
g2
Ntp1004
Rp1005
(dp1006
g11
(lp1007
g40
ag41
asg14
I00
sg15
I00
sg40
g0
(g42
g2
Ntp1008
Rp1009
(dp1010
g14
I00
sg29
I01
sg46
S'AK5TRK'
p1011
sg15
I01
sbsg41
g0
(g42
g2
Ntp1012
Rp1013
(dp1014
g14
I00
sg29
I01
sg46
g104
sg15
I00
sbsg17
g603
sg16
I83
sg31
g313
sg32
g105
sbsS'kt4PFL1FastL2L3'
p1015
g0
(g7
g2
Ntp1016
Rp1017
(dp1018
g11
(lp1019
g13
asg14
I00
sg15
I00
sg16
I603
sg17
g52
sg13
g0
(g19
g20
(lp1020
g173
ag162
ag163
atp1021
Rp1022
(dp1023
g14
I00
sg29
I01
sg15
I00
sg30
I1
sbsg31
g1015
sg32
g33
sbsS'ak9PFL2L3'
p1024
g0
(g7
g2
Ntp1025
Rp1026
(dp1027
g11
(lp1028
g13
asg14
I00
sg15
I00
sg16
I40
sg17
g18
sg13
g0
(g19
g20
(lp1029
g915
ag916
atp1030
Rp1031
(dp1032
g14
I00
sg29
I01
sg15
I00
sg30
I1
sbsg31
g1024
sg32
g33
sbsS'ic5CaloL1L2L3'
p1033
g0
(g7
g2
Ntp1034
Rp1035
(dp1036
g11
(lp1037
g13
asg14
I00
sg15
I00
sg16
I40
sg17
g18
sg13
g0
(g19
g20
(lp1038
S'ic5CaloL1Offset'
p1039
ag840
ag841
atp1040
Rp1041
(dp1042
g14
I00
sg29
I01
sg15
I00
sg30
I1
sbsg31
g1033
sg32
g33
sbsg114
g0
(g7
g2
Ntp1043
Rp1044
(dp1045
g11
(lp1046
g40
ag41
asg14
I00
sg15
I00
sg40
g0
(g42
g2
Ntp1047
Rp1048
(dp1049
g14
I00
sg29
I01
sg46
S'KT6PF'
p1050
sg15
I01
sbsg41
g0
(g42
g2
Ntp1051
Rp1052
(dp1053
g14
I00
sg29
I01
sg46
g104
sg15
I00
sbsg17
g52
sg16
I129
sg31
g114
sg32
g105
sbsS'ic5PFL2L3L6'
p1054
g0
(g7
g2
Ntp1055
Rp1056
(dp1057
g11
(lp1058
g13
asg14
I00
sg15
I00
sg16
I741
sg17
g52
sg13
g0
(g19
g20
(lp1059
g263
ag264
aS'ic5PFL6SLB'
p1060
atp1061
Rp1062
(dp1063
g14
I00
sg29
I01
sg15
I00
sg30
I1
sbsg31
g1054
sg32
g33
sbsg870
g0
(g7
g2
Ntp1064
Rp1065
(dp1066
g11
(lp1067
g40
ag41
asg14
I00
sg15
I00
sg40
g0
(g42
g2
Ntp1068
Rp1069
(dp1070
g14
I00
sg29
I01
sg46
g854
sg15
I01
sbsg41
g0
(g42
g2
Ntp1071
Rp1072
(dp1073
g14
I00
sg29
I01
sg46
g365
sg15
I00
sbsg17
g52
sg16
I92
sg31
g870
sg32
g105
sbsS'ak5PFL2L3'
p1074
g0
(g7
g2
Ntp1075
Rp1076
(dp1077
g11
(lp1078
g13
asg14
I00
sg15
I00
sg16
I40
sg17
g18
sg13
g0
(g19
g20
(lp1079
g644
ag645
atp1080
Rp1081
(dp1082
g14
I00
sg29
I01
sg15
I00
sg30
I1
sbsg31
g1074
sg32
g33
sbsS'ic5CaloL2L3'
p1083
g0
(g7
g2
Ntp1084
Rp1085
(dp1086
g11
(lp1087
g13
asg14
I00
sg15
I00
sg16
I40
sg17
g18
sg13
g0
(g19
g20
(lp1088
g840
ag841
atp1089
Rp1090
(dp1091
g14
I00
sg29
I01
sg15
I00
sg30
I1
sbsg31
g1083
sg32
g33
sbsS'ak8PFCHSL1L2L3Residual'
p1092
g0
(g7
g2
Ntp1093
Rp1094
(dp1095
g11
(lp1096
g13
asg14
I00
sg15
I00
sg16
I40
sg17
g18
sg13
g0
(g19
g20
(lp1097
S'ak8PFCHSL1Offset'
p1098
aS'ak8PFCHSL2Relative'
p1099
ag216
aS'ak8PFCHSResidual'
p1100
atp1101
Rp1102
(dp1103
g14
I00
sg29
I01
sg15
I00
sg30
I1
sbsg31
g1092
sg32
g33
sbsS'ak1PFL1Offset'
p1104
g0
(g7
g2
Ntp1105
Rp1106
(dp1107
g11
(lp1108
g137
ag138
ag40
ag41
asg14
I00
sg15
I00
sg40
g0
(g42
g2
Ntp1109
Rp1110
(dp1111
g14
I00
sg29
I01
sg46
S'AK1PF'
p1112
sg15
I01
sbsg137
g0
(g143
g2
Ntp1113
Rp1114
(dp1115
g14
I00
sg29
I01
sg46
I4
sg15
I00
sbsg17
g52
sg41
g0
(g42
g2
Ntp1116
Rp1117
(dp1118
g14
I00
sg29
I01
sg46
g150
sg15
I00
sbsg138
g0
(g42
g2
Ntp1119
Rp1120
(dp1121
g14
I00
sg29
I01
sg46
g154
sg15
I00
sbsg16
I18
sg31
g1104
sg32
g155
sbsS'ak2PFCHSL2Relative'
p1122
g0
(g7
g2
Ntp1123
Rp1124
(dp1125
g11
(lp1126
g40
ag41
asg14
I00
sg15
I00
sg40
g0
(g42
g2
Ntp1127
Rp1128
(dp1129
g14
I00
sg29
I01
sg46
S'AK2PFchs'
p1130
sg15
I01
sbsg41
g0
(g42
g2
Ntp1131
Rp1132
(dp1133
g14
I00
sg29
I01
sg46
g365
sg15
I00
sbsg17
g52
sg16
I85
sg31
g1122
sg32
g105
sbsS'ak4PFL1FastL2L3Residual'
p1134
g0
(g7
g2
Ntp1135
Rp1136
(dp1137
g11
(lp1138
g13
asg14
I00
sg15
I00
sg16
I40
sg17
g18
sg13
g0
(g19
g20
(lp1139
g173
aS'ak4PFL2Relative'
p1140
aS'ak4PFL3Absolute'
p1141
aS'ak4PFResidual'
p1142
atp1143
Rp1144
(dp1145
g14
I00
sg29
I01
sg15
I00
sg30
I1
sbsg31
g1134
sg32
g33
sbsS'kt4CaloL1FastL2L3Residual'
p1146
g0
(g7
g2
Ntp1147
Rp1148
(dp1149
g11
(lp1150
g13
asg14
I00
sg15
I00
sg16
I40
sg17
g18
sg13
g0
(g19
g20
(lp1151
S'kt4CaloL1Fastjet'
p1152
aS'kt4CaloL2Relative'
p1153
aS'kt4CaloL3Absolute'
p1154
aS'kt4CaloResidual'
p1155
atp1156
Rp1157
(dp1158
g14
I00
sg29
I01
sg15
I00
sg30
I1
sbsg31
g1146
sg32
g33
sbsg1060
g0
(g7
g2
Ntp1159
Rp1160
(dp1161
g11
(lp1162
g233
ag234
ag235
ag40
ag41
asg14
I00
sg15
I00
sg40
g0
(g42
g2
Ntp1163
Rp1164
(dp1165
g14
I00
sg29
I01
sg46
g60
sg15
I00
sbsg233
g0
(g53
g2
Ntp1166
Rp1167
(dp1168
g14
I00
sg29
I01
sg15
I00
sg57
S'ic5PFJetsSoftElectronTagInfos'
p1169
sg61
g60
sg59
g60
sbsg17
g52
sg41
g0
(g42
g2
Ntp1170
Rp1171
(dp1172
g14
I00
sg29
I01
sg46
g246
sg15
I00
sbsg234
g0
(g53
g2
Ntp1173
Rp1174
(dp1175
g14
I00
sg29
I01
sg15
I00
sg57
S'ic5PFJetsSoftMuonTagInfos'
p1176
sg61
g60
sg59
g60
sbsg16
I193
sg235
g0
(g251
g2
Ntp1177
Rp1178
(dp1179
g14
I00
sg29
I01
sg46
I00
sg15
I00
sbsg31
g1060
sg32
g255
sbsS'ak3PFCHSL1Fastjet'
p1180
g0
(g7
g2
Ntp1181
Rp1182
(dp1183
g11
(lp1184
g39
ag40
ag41
asg14
I00
sg15
I00
sg40
g0
(g42
g2
Ntp1185
Rp1186
(dp1187
g14
I00
sg29
I01
sg46
S'AK3PFchs'
p1188
sg15
I01
sbsg41
g0
(g42
g2
Ntp1189
Rp1190
(dp1191
g14
I00
sg29
I01
sg46
g51
sg15
I00
sbsg17
g52
sg16
I53
sg39
g0
(g53
g2
Ntp1192
Rp1193
(dp1194
g14
I00
sg29
I01
sg15
I00
sg57
g91
sg59
g60
sg61
g60
sbsg31
g1180
sg32
g62
sbsg1154
g0
(g7
g2
Ntp1195
Rp1196
(dp1197
g11
(lp1198
g40
ag41
asg14
I00
sg15
I00
sg40
g0
(g42
g2
Ntp1199
Rp1200
(dp1201
g14
I00
sg29
I01
sg46
S'KT4Calo'
p1202
sg15
I01
sbsg41
g0
(g42
g2
Ntp1203
Rp1204
(dp1205
g14
I00
sg29
I01
sg46
g104
sg15
I00
sbsg17
g52
sg16
I106
sg31
g1154
sg32
g105
sbsS'ak5PFL1L2L3Residual'
p1206
g0
(g7
g2
Ntp1207
Rp1208
(dp1209
g11
(lp1210
g13
asg14
I00
sg15
I00
sg16
I40
sg17
g18
sg13
g0
(g19
g20
(lp1211
S'ak5PFL1Offset'
p1212
ag644
ag645
ag646
atp1213
Rp1214
(dp1215
g14
I00
sg29
I01
sg15
I00
sg30
I1
sbsg31
g1206
sg32
g33
sbsg733
g0
(g7
g2
Ntp1216
Rp1217
(dp1218
g11
(lp1219
g40
ag41
asg14
I00
sg15
I00
sg40
g0
(g42
g2
Ntp1220
Rp1221
(dp1222
g14
I00
sg29
I01
sg46
g277
sg15
I01
sbsg41
g0
(g42
g2
Ntp1223
Rp1224
(dp1225
g14
I00
sg29
I01
sg46
g365
sg15
I00
sbsg17
g52
sg16
I78
sg31
g733
sg32
g105
sbsg1100
g0
(g7
g2
Ntp1226
Rp1227
(dp1228
g11
(lp1229
g40
ag41
asg14
I00
sg15
I00
sg40
g0
(g42
g2
Ntp1230
Rp1231
(dp1232
g14
I00
sg29
I01
sg46
g224
sg15
I01
sbsg41
g0
(g42
g2
Ntp1233
Rp1234
(dp1235
g14
I00
sg29
I01
sg46
g304
sg15
I00
sbsg17
g52
sg16
I151
sg31
g1100
sg32
g105
sbsS'ak3PFCHSL1Offset'
p1236
g0
(g7
g2
Ntp1237
Rp1238
(dp1239
g11
(lp1240
g137
ag138
ag40
ag41
asg14
I00
sg15
I00
sg40
g0
(g42
g2
Ntp1241
Rp1242
(dp1243
g14
I00
sg29
I01
sg46
g1188
sg15
I01
sbsg137
g0
(g143
g2
Ntp1244
Rp1245
(dp1246
g14
I00
sg29
I01
sg46
I4
sg15
I00
sbsg17
g52
sg41
g0
(g42
g2
Ntp1247
Rp1248
(dp1249
g14
I00
sg29
I01
sg46
g150
sg15
I00
sbsg138
g0
(g42
g2
Ntp1250
Rp1251
(dp1252
g14
I00
sg29
I01
sg46
g154
sg15
I00
sbsg16
I23
sg31
g1236
sg32
g155
sbsS'ak8PFCHSL2L3'
p1253
g0
(g7
g2
Ntp1254
Rp1255
(dp1256
g11
(lp1257
g13
asg14
I00
sg15
I00
sg16
I40
sg17
g18
sg13
g0
(g19
g20
(lp1258
g1099
ag216
atp1259
Rp1260
(dp1261
g14
I00
sg29
I01
sg15
I00
sg30
I1
sbsg31
g1253
sg32
g33
sbsg128
g0
(g7
g2
Ntp1262
Rp1263
(dp1264
g11
(lp1265
g40
ag41
asg14
I00
sg15
I00
sg40
g0
(g42
g2
Ntp1266
Rp1267
(dp1268
g14
I00
sg29
I01
sg46
S'AK8PF'
p1269
sg15
I01
sbsg41
g0
(g42
g2
Ntp1270
Rp1271
(dp1272
g14
I00
sg29
I01
sg46
g304
sg15
I00
sbsg17
g52
sg16
I150
sg31
g128
sg32
g105
sbsg645
g0
(g7
g2
Ntp1273
Rp1274
(dp1275
g11
(lp1276
g40
ag41
asg14
I00
sg15
I00
sg40
g0
(g42
g2
Ntp1277
Rp1278
(dp1279
g14
I00
sg29
I01
sg46
g972
sg15
I01
sbsg41
g0
(g42
g2
Ntp1280
Rp1281
(dp1282
g14
I00
sg29
I01
sg46
g104
sg15
I00
sbsg17
g52
sg16
I116
sg31
g645
sg32
g105
sbsS'CastorDbProducer'
p1283
g0
(g7
g2
Ntp1284
Rp1285
(dp1286
g11
(lp1287
sg14
I00
sg15
I00
sg16
I40
sg17
g18
sg31
g1283
sg32
g1283
sbsS'ak7CaloL1FastL2L3L6'
p1288
g0
(g7
g2
Ntp1289
Rp1290
(dp1291
g11
(lp1292
g13
asg14
I00
sg15
I00
sg16
I746
sg17
g52
sg13
g0
(g19
g20
(lp1293
g959
ag960
ag961
aS'ak7CaloL6SLB'
p1294
atp1295
Rp1296
(dp1297
g14
I00
sg29
I01
sg15
I00
sg30
I1
sbsg31
g1288
sg32
g33
sbsS'ak7JPTL1Offset'
p1298
g0
(g7
g2
Ntp1299
Rp1300
(dp1301
g11
(lp1302
g137
ag138
ag40
ag41
asg14
I00
sg15
I00
sg40
g0
(g42
g2
Ntp1303
Rp1304
(dp1305
g14
I00
sg29
I01
sg46
S'AK7JPT'
p1306
sg15
I01
sbsg137
g0
(g143
g2
Ntp1307
Rp1308
(dp1309
g14
I00
sg29
I01
sg46
I4
sg15
I00
sbsg17
g52
sg41
g0
(g42
g2
Ntp1310
Rp1311
(dp1312
g14
I00
sg29
I01
sg46
g150
sg15
I00
sbsg138
g0
(g42
g2
Ntp1313
Rp1314
(dp1315
g14
I00
sg29
I01
sg46
g154
sg15
I00
sbsg16
I40
sg31
g1298
sg32
g155
sbsS'ak3PFL2L3'
p1316
g0
(g7
g2
Ntp1317
Rp1318
(dp1319
g11
(lp1320
g13
asg14
I00
sg15
I00
sg16
I40
sg17
g18
sg13
g0
(g19
g20
(lp1321
S'ak3PFL2Relative'
p1322
aS'ak3PFL3Absolute'
p1323
atp1324
Rp1325
(dp1326
g14
I00
sg29
I01
sg15
I00
sg30
I1
sbsg31
g1316
sg32
g33
sbsS'ak4PFCHSL2L3Residual'
p1327
g0
(g7
g2
Ntp1328
Rp1329
(dp1330
g11
(lp1331
g13
asg14
I00
sg15
I00
sg16
I40
sg17
g18
sg13
g0
(g19
g20
(lp1332
g591
aS'ak4PFCHSL3Absolute'
p1333
aS'ak4PFCHSResidual'
p1334
atp1335
Rp1336
(dp1337
g14
I00
sg29
I01
sg15
I00
sg30
I1
sbsg31
g1327
sg32
g33
sbsS'kt4PFL1Fastjet'
p1338
g0
(g7
g2
Ntp1339
Rp1340
(dp1341
g11
(lp1342
g39
ag40
ag41
asg14
I00
sg15
I00
sg40
g0
(g42
g2
Ntp1343
Rp1344
(dp1345
g14
I00
sg29
I01
sg46
g984
sg15
I01
sbsg41
g0
(g42
g2
Ntp1346
Rp1347
(dp1348
g14
I00
sg29
I01
sg46
g51
sg15
I00
sbsg17
g52
sg16
I66
sg39
g0
(g53
g2
Ntp1349
Rp1350
(dp1351
g14
I00
sg29
I01
sg15
I00
sg57
g91
sg59
g60
sg61
g60
sbsg31
g1338
sg32
g62
sbsg1140
g0
(g7
g2
Ntp1352
Rp1353
(dp1354
g11
(lp1355
g40
ag41
asg14
I00
sg15
I00
sg40
g0
(g42
g2
Ntp1356
Rp1357
(dp1358
g14
I00
sg29
I01
sg46
S'AK4PF'
p1359
sg15
I01
sbsg41
g0
(g42
g2
Ntp1360
Rp1361
(dp1362
g14
I00
sg29
I01
sg46
g365
sg15
I00
sbsg17
g603
sg16
I69
sg31
g1140
sg32
g105
sbsS'ak10PFCHSL1FastjetL2L3Residual'
p1363
g0
(g7
g2
Ntp1364
Rp1365
(dp1366
g11
(lp1367
g13
asg14
I00
sg15
I00
sg16
I40
sg17
g18
sg13
g0
(g19
g20
(lp1368
S'ak10PFCHSL1Fastjet'
p1369
ag70
ag71
ag72
atp1370
Rp1371
(dp1372
g14
I00
sg29
I01
sg15
I00
sg30
I1
sbsg31
g1363
sg32
g33
sbsg264
g0
(g7
g2
Ntp1373
Rp1374
(dp1375
g11
(lp1376
g40
ag41
asg14
I00
sg15
I00
sg40
g0
(g42
g2
Ntp1377
Rp1378
(dp1379
g14
I00
sg29
I01
sg46
g777
sg15
I01
sbsg41
g0
(g42
g2
Ntp1380
Rp1381
(dp1382
g14
I00
sg29
I01
sg46
g104
sg15
I00
sbsg17
g52
sg16
I130
sg31
g264
sg32
g105
sbsS'ak7CaloL2L3L6'
p1383
g0
(g7
g2
Ntp1384
Rp1385
(dp1386
g11
(lp1387
g13
asg14
I00
sg15
I00
sg16
I726
sg17
g52
sg13
g0
(g19
g20
(lp1388
g960
ag961
ag1294
atp1389
Rp1390
(dp1391
g14
I00
sg29
I01
sg15
I00
sg30
I1
sbsg31
g1383
sg32
g33
sbsS'siStripQualityESProducer'
p1392
g0
(g7
g2
Ntp1393
Rp1394
(dp1395
g11
(lp1396
S'appendToDataLabel'
p1397
aS'PrintDebugOutput'
p1398
aS'ThresholdForReducedGranularity'
p1399
aS'UseEmptyRunInfo'
p1400
aS'ReduceGranularity'
p1401
aS'ListOfRecordToMerge'
p1402
asg14
I00
sg1397
g0
(g42
g2
Ntp1403
Rp1404
(dp1405
g14
I00
sg29
I01
sg46
g60
sg15
I00
sbsg15
I01
sg16
I40
sg17
g18
sg1399
g0
(g489
g2
Ntp1406
Rp1407
(dp1408
g14
I00
sg29
I01
sg46
F0.3
sg15
I00
sbsg31
g1392
sg1400
g0
(g251
g2
Ntp1409
Rp1410
(dp1411
g14
I00
sg29
I01
sg46
I00
sg15
I00
sbsg1401
g0
(g251
g2
Ntp1412
Rp1413
(dp1414
g14
I00
sg29
I01
sg46
I00
sg15
I00
sbsg1402
g0
(cFWCore.ParameterSet.Types
VPSet
p1415
g20
(lp1416
g0
(g424
g2
Ntp1417
Rp1418
(dp1419
g14
I00
sg29
I01
sg15
I00
sg676
g0
(g42
g2
Ntp1420
Rp1421
(dp1422
g14
I00
sg29
I01
sg46
S'SiStripDetVOffRcd'
p1423
sg15
I00
sbsS'tag'
p1424
g0
(g42
g2
Ntp1425
Rp1426
(dp1427
g14
I00
sg29
I01
sg46
g60
sg15
I00
sbsg11
(lp1428
g676
ag1424
asbag0
(g424
g2
Ntp1429
Rp1430
(dp1431
g14
I00
sg29
I01
sg15
I00
sg676
g0
(g42
g2
Ntp1432
Rp1433
(dp1434
g14
I00
sg29
I01
sg46
S'SiStripDetCablingRcd'
p1435
sg15
I00
sbsg1424
g0
(g42
g2
Ntp1436
Rp1437
(dp1438
g14
I00
sg29
I01
sg46
g60
sg15
I00
sbsg11
(lp1439
g676
ag1424
asbag0
(g424
g2
Ntp1440
Rp1441
(dp1442
g14
I00
sg29
I01
sg15
I00
sg676
g0
(g42
g2
Ntp1443
Rp1444
(dp1445
g14
I00
sg29
I01
sg46
S'RunInfoRcd'
p1446
sg15
I00
sbsg1424
g0
(g42
g2
Ntp1447
Rp1448
(dp1449
g14
I00
sg29
I01
sg46
g60
sg15
I00
sbsg11
(lp1450
g676
ag1424
asbag0
(g424
g2
Ntp1451
Rp1452
(dp1453
g14
I00
sg29
I01
sg15
I00
sg676
g0
(g42
g2
Ntp1454
Rp1455
(dp1456
g14
I00
sg29
I01
sg46
S'SiStripBadChannelRcd'
p1457
sg15
I00
sbsg1424
g0
(g42
g2
Ntp1458
Rp1459
(dp1460
g14
I00
sg29
I01
sg46
g60
sg15
I00
sbsg11
(lp1461
g676
ag1424
asbag0
(g424
g2
Ntp1462
Rp1463
(dp1464
g14
I00
sg29
I01
sg15
I00
sg676
g0
(g42
g2
Ntp1465
Rp1466
(dp1467
g14
I00
sg29
I01
sg46
S'SiStripBadFiberRcd'
p1468
sg15
I00
sbsg1424
g0
(g42
g2
Ntp1469
Rp1470
(dp1471
g14
I00
sg29
I01
sg46
g60
sg15
I00
sbsg11
(lp1472
g676
ag1424
asbag0
(g424
g2
Ntp1473
Rp1474
(dp1475
g14
I00
sg29
I01
sg15
I00
sg676
g0
(g42
g2
Ntp1476
Rp1477
(dp1478
g14
I00
sg29
I01
sg46
S'SiStripBadModuleRcd'
p1479
sg15
I00
sbsg1424
g0
(g42
g2
Ntp1480
Rp1481
(dp1482
g14
I00
sg29
I01
sg46
g60
sg15
I00
sbsg11
(lp1483
g676
ag1424
asbag0
(g424
g2
Ntp1484
Rp1485
(dp1486
g14
I00
sg29
I01
sg15
I00
sg676
g0
(g42
g2
Ntp1487
Rp1488
(dp1489
g14
I00
sg29
I01
sg46
S'SiStripBadStripRcd'
p1490
sg15
I00
sbsg1424
g0
(g42
g2
Ntp1491
Rp1492
(dp1493
g14
I00
sg29
I01
sg46
g60
sg15
I00
sbsg11
(lp1494
g676
ag1424
asbatp1495
Rp1496
(dp1497
g14
I00
sg29
I01
sg15
I00
sg30
I1
sbsg32
S'SiStripQualityESProducer'
p1498
sg1398
g0
(g251
g2
Ntp1499
Rp1500
(dp1501
g14
I00
sg29
I01
sg46
I00
sg15
I00
sbsbsS'ak4TrackL2L3'
p1502
g0
(g7
g2
Ntp1503
Rp1504
(dp1505
g11
(lp1506
g13
asg14
I00
sg15
I00
sg16
I40
sg17
g18
sg13
g0
(g19
g20
(lp1507
g312
ag313
atp1508
Rp1509
(dp1510
g14
I00
sg29
I01
sg15
I00
sg30
I1
sbsg31
g1502
sg32
g33
sbsg928
g0
(g7
g2
Ntp1511
Rp1512
(dp1513
g11
(lp1514
g40
ag41
asg14
I00
sg15
I00
sg40
g0
(g42
g2
Ntp1515
Rp1516
(dp1517
g14
I00
sg29
I01
sg46
g1112
sg15
I01
sbsg41
g0
(g42
g2
Ntp1518
Rp1519
(dp1520
g14
I00
sg29
I01
sg46
g365
sg15
I00
sbsg17
g52
sg16
I82
sg31
g928
sg32
g105
sbsS'makeUpdatedPatJets'
p1521
g0
(cFWCore.ParameterSet.SequenceTypes
Sequence
p1522
g2
Ntp1523
Rp1524
(dp1525
g14
I00
sg322
g0
(g323
g2
Ntp1526
Rp1527
(dp1528
g327
(lp1529
g0
(g329
g2
Ntp1530
Rp1531
(dp1532
g11
(lp1533
g334
ag335
ag336
ag337
ag338
ag339
ag340
ag341
ag342
ag343
asg14
I00
sg343
g0
(g42
g2
Ntp1534
Rp1535
(dp1536
g14
I00
sg29
I01
sg46
g347
sg15
I00
sbsg335
g0
(g251
g2
Ntp1537
Rp1538
(dp1539
g14
I00
sg29
I01
sg46
I00
sg15
I00
sbsg15
I00
sg334
g0
(g53
g2
Ntp1540
Rp1541
(dp1542
g14
I00
sg29
I01
sg15
I00
sg57
S'slimmedJets'
p1543
sg61
g60
sg59
g60
sbsg17
S'/cvmfs/cms.cern.ch/slc6_amd64_gcc530/cms/cmssw/CMSSW_8_0_6/python/PhysicsTools/PatAlgos/producersLayer1/jetUpdater_cff.py'
p1544
sg336
g0
(g42
g2
Ntp1545
Rp1546
(dp1547
g14
I00
sg29
I01
sg46
g51
sg15
I00
sbsg337
g0
(g53
g2
Ntp1548
Rp1549
(dp1550
g14
I00
sg29
I01
sg15
I00
sg57
g362
sg61
g60
sg59
g60
sbsg31
S'updatedPatJetCorrFactors'
p1551
sg338
g0
(g19
g20
(lp1552
g51
ag365
ag104
atp1553
Rp1554
(dp1555
g14
I00
sg29
I01
sg15
I00
sg30
I1
sbsg16
I8
sg339
g0
(g251
g2
Ntp1556
Rp1557
(dp1558
g14
I00
sg29
I01
sg46
I01
sg15
I00
sbsg340
g0
(g53
g2
Ntp1559
Rp1560
(dp1561
g14
I00
sg29
I01
sg15
I00
sg57
g91
sg59
g60
sg61
g60
sbsg341
g0
(g251
g2
Ntp1562
Rp1563
(dp1564
g14
I00
sg29
I01
sg46
I01
sg15
I00
sbsg342
g0
(g42
g2
Ntp1565
Rp1566
(dp1567
g14
I00
sg29
I01
sg46
g599
sg15
I00
sbsg32
g381
sbag0
(g329
g2
Ntp1568
Rp1569
(dp1570
g11
(lp1571
g386
ag387
ag391
ag389
ag390
ag388
ag392
ag393
ag394
asg14
I00
sg15
I00
sg387
g0
(g53
g2
Ntp1572
Rp1573
(dp1574
g14
I00
sg29
I01
sg15
I00
sg57
g1543
sg61
g60
sg59
g60
sbsg17
S'/cvmfs/cms.cern.ch/slc6_amd64_gcc530/cms/cmssw/CMSSW_8_0_6/python/PhysicsTools/PatAlgos/producersLayer1/jetUpdater_cfi.py'
p1575
sg391
g0
(g398
g20
(lp1576
tp1577
Rp1578
(dp1579
g14
I00
sg29
I01
sg15
I00
sbsg389
g0
(g251
g2
Ntp1580
Rp1581
(dp1582
g14
I00
sg29
I01
sg46
I01
sg15
I00
sbsg31
S'updatedPatJets'
p1583
sg16
I39
sg390
g0
(g398
g20
(lp1584
tp1585
Rp1586
(dp1587
g14
I00
sg29
I01
sg15
I00
sbsg388
g0
(g398
g20
(lp1588
g0
(g53
g2
Ntp1589
Rp1590
(dp1591
g14
I00
sg29
I01
sg15
I00
sg57
g1551
sg61
g60
sg59
g60
sbatp1592
Rp1593
(dp1594
g14
I00
sg29
I01
sg15
I00
sbsg392
g0
(g251
g2
Ntp1595
Rp1596
(dp1597
g14
I00
sg29
I01
sg46
I01
sg15
I00
sbsg393
g0
(g251
g2
Ntp1598
Rp1599
(dp1600
g14
I00
sg29
I01
sg46
I01
sg15
I00
sbsg394
g0
(g424
g2
Ntp1601
Rp1602
(dp1603
g14
I00
sg29
I01
sg428
g0
(g424
g2
Ntp1604
Rp1605
(dp1606
g14
I00
sg29
I01
sg334
g0
(g398
g20
(lp1607
g60
atp1608
Rp1609
(dp1610
g14
I00
sg29
I01
sg15
I00
sbsg15
I00
sg11
(lp1611
g334
asbsg15
I00
sg437
g0
(g424
g2
Ntp1612
Rp1613
(dp1614
g14
I00
sg29
I01
sg334
g0
(g398
g20
(lp1615
g60
atp1616
Rp1617
(dp1618
g14
I00
sg29
I01
sg15
I00
sbsg15
I00
sg11
(lp1619
g334
asbsg446
g0
(g424
g2
Ntp1620
Rp1621
(dp1622
g14
I00
sg29
I01
sg334
g0
(g398
g20
(lp1623
g60
atp1624
Rp1625
(dp1626
g14
I00
sg29
I01
sg15
I00
sbsg15
I00
sg11
(lp1627
g334
asbsg11
(lp1628
g428
ag437
ag446
ag456
ag457
ag458
asg456
g0
(g424
g2
Ntp1629
Rp1630
(dp1631
g14
I00
sg29
I01
sg334
g0
(g398
g20
(lp1632
g60
atp1633
Rp1634
(dp1635
g14
I00
sg29
I01
sg15
I00
sbsg15
I00
sg11
(lp1636
g334
asbsg457
g0
(g19
g20
(lp1637
tp1638
Rp1639
(dp1640
g14
I00
sg29
I01
sg15
I00
sg30
I1
sbsg458
g0
(g19
g20
(lp1641
tp1642
Rp1643
(dp1644
g14
I00
sg29
I01
sg15
I00
sg30
I1
sbsbsg386
g0
(g251
g2
Ntp1645
Rp1646
(dp1647
g14
I00
sg29
I01
sg46
I00
sg15
I00
sbsg32
g478
sbasbsg15
I00
sg31
g1521
sbsS'_Process__modifiers'
p1648
(tsg656
g0
(g7
g2
Ntp1649
Rp1650
(dp1651
g11
(lp1652
g40
ag41
asg14
I00
sg15
I00
sg40
g0
(g42
g2
Ntp1653
Rp1654
(dp1655
g14
I00
sg29
I01
sg46
g84
sg15
I01
sbsg41
g0
(g42
g2
Ntp1656
Rp1657
(dp1658
g14
I00
sg29
I01
sg46
g365
sg15
I00
sbsg17
g52
sg16
I93
sg31
g656
sg32
g105
sbsS'ak9PFCHSL2L3'
p1659
g0
(g7
g2
Ntp1660
Rp1661
(dp1662
g11
(lp1663
g13
asg14
I00
sg15
I00
sg16
I40
sg17
g18
sg13
g0
(g19
g20
(lp1664
g897
aS'ak9PFCHSL3Absolute'
p1665
atp1666
Rp1667
(dp1668
g14
I00
sg29
I01
sg15
I00
sg30
I1
sbsg31
g1659
sg32
g33
sbsS'_Process__esproducers'
p1669
(dp1670
S'ak6PFResidual'
p1671
g0
(g7
g2
Ntp1672
Rp1673
(dp1674
g11
(lp1675
g40
ag41
asg14
I00
sg15
I00
sg40
g0
(g42
g2
Ntp1676
Rp1677
(dp1678
g14
I00
sg29
I01
sg46
S'AK6PF'
p1679
sg15
I01
sbsg41
g0
(g42
g2
Ntp1680
Rp1681
(dp1682
g14
I00
sg29
I01
sg46
g304
sg15
I00
sbsg17
g52
sg16
I146
sg31
g1671
sg32
g105
sbsg1146
g1148
sg797
g0
(g7
g2
Ntp1683
Rp1684
(dp1685
g11
(lp1686
g40
ag41
asg14
I00
sg15
I00
sg40
g0
(g42
g2
Ntp1687
Rp1688
(dp1689
g14
I00
sg29
I01
sg46
g1188
sg15
I01
sbsg41
g0
(g42
g2
Ntp1690
Rp1691
(dp1692
g14
I00
sg29
I01
sg46
g365
sg15
I00
sbsg17
g52
sg16
I87
sg31
g797
sg32
g105
sbsS'ak9PFCHSL1Offset'
p1693
g0
(g7
g2
Ntp1694
Rp1695
(dp1696
g11
(lp1697
g137
ag138
ag40
ag41
asg14
I00
sg15
I00
sg40
g0
(g42
g2
Ntp1698
Rp1699
(dp1700
g14
I00
sg29
I01
sg46
g905
sg15
I01
sbsg137
g0
(g143
g2
Ntp1701
Rp1702
(dp1703
g14
I00
sg29
I01
sg46
I4
sg15
I00
sbsg17
g52
sg41
g0
(g42
g2
Ntp1704
Rp1705
(dp1706
g14
I00
sg29
I01
sg46
g150
sg15
I00
sbsg138
g0
(g42
g2
Ntp1707
Rp1708
(dp1709
g14
I00
sg29
I01
sg46
g154
sg15
I00
sbsg16
I33
sg31
g1693
sg32
g155
sbsg6
g9
sg34
g36
sg63
g65
sS'ak7CaloL2L3'
p1710
g0
(g7
g2
Ntp1711
Rp1712
(dp1713
g11
(lp1714
g13
asg14
I00
sg15
I00
sg16
I40
sg17
g18
sg13
g0
(g19
g20
(lp1715
g960
ag961
atp1716
Rp1717
(dp1718
g14
I00
sg29
I01
sg15
I00
sg30
I1
sbsg31
g1710
sg32
g33
sbsg1334
g0
(g7
g2
Ntp1719
Rp1720
(dp1721
g11
(lp1722
g40
ag41
asg14
I00
sg15
I00
sg40
g0
(g42
g2
Ntp1723
Rp1724
(dp1725
g14
I00
sg29
I01
sg46
g599
sg15
I01
sbsg41
g0
(g42
g2
Ntp1726
Rp1727
(dp1728
g14
I00
sg29
I01
sg46
g304
sg15
I00
sbsg17
g603
sg16
I92
sg31
g1334
sg32
g105
sbsS'ak2PFCHSL2L3Residual'
p1729
g0
(g7
g2
Ntp1730
Rp1731
(dp1732
g11
(lp1733
g13
asg14
I00
sg15
I00
sg16
I40
sg17
g18
sg13
g0
(g19
g20
(lp1734
g1122
aS'ak2PFCHSL3Absolute'
p1735
aS'ak2PFCHSResidual'
p1736
atp1737
Rp1738
(dp1739
g14
I00
sg29
I01
sg15
I00
sg30
I1
sbsg31
g1729
sg32
g33
sbsS'kt6CaloL1L2L3'
p1740
g0
(g7
g2
Ntp1741
Rp1742
(dp1743
g11
(lp1744
g13
asg14
I00
sg15
I00
sg16
I40
sg17
g18
sg13
g0
(g19
g20
(lp1745
g732
ag733
ag269
atp1746
Rp1747
(dp1748
g14
I00
sg29
I01
sg15
I00
sg30
I1
sbsg31
g1740
sg32
g33
sbsg92
g94
sS'ic5CaloL1FastL2L3'
p1749
g0
(g7
g2
Ntp1750
Rp1751
(dp1752
g11
(lp1753
g13
asg14
I00
sg15
I00
sg16
I596
sg17
g52
sg13
g0
(g19
g20
(lp1754
g311
ag840
ag841
atp1755
Rp1756
(dp1757
g14
I00
sg29
I01
sg15
I00
sg30
I1
sbsg31
g1749
sg32
g33
sbsS'ak5PFCHSL1Offset'
p1758
g0
(g7
g2
Ntp1759
Rp1760
(dp1761
g11
(lp1762
g137
ag138
ag40
ag41
asg14
I00
sg15
I00
sg40
g0
(g42
g2
Ntp1763
Rp1764
(dp1765
g14
I00
sg29
I01
sg46
S'AK5PFchs'
p1766
sg15
I01
sbsg137
g0
(g143
g2
Ntp1767
Rp1768
(dp1769
g14
I00
sg29
I01
sg46
I4
sg15
I00
sbsg17
g52
sg41
g0
(g42
g2
Ntp1770
Rp1771
(dp1772
g14
I00
sg29
I01
sg46
g150
sg15
I00
sbsg138
g0
(g42
g2
Ntp1773
Rp1774
(dp1775
g14
I00
sg29
I01
sg46
g154
sg15
I00
sbsg16
I25
sg31
g1758
sg32
g155
sbsS'ak5PFCHSL1L2L3Residual'
p1776
g0
(g7
g2
Ntp1777
Rp1778
(dp1779
g11
(lp1780
g13
asg14
I00
sg15
I00
sg16
I40
sg17
g18
sg13
g0
(g19
g20
(lp1781
g1758
ag184
ag185
ag186
atp1782
Rp1783
(dp1784
g14
I00
sg29
I01
sg15
I00
sg30
I1
sbsg31
g1776
sg32
g33
sbsg818
g0
(g7
g2
Ntp1785
Rp1786
(dp1787
g11
(lp1788
g40
ag41
asg14
I00
sg15
I00
sg40
g0
(g42
g2
Ntp1789
Rp1790
(dp1791
g14
I00
sg29
I01
sg46
g277
sg15
I01
sbsg41
g0
(g42
g2
Ntp1792
Rp1793
(dp1794
g14
I00
sg29
I01
sg46
g304
sg15
I00
sbsg17
g52
sg16
I135
sg31
g818
sg32
g105
sbsg976
g978
sS'ak4PFCHSL1L2L3'
p1795
g0
(g7
g2
Ntp1796
Rp1797
(dp1798
g11
(lp1799
g13
asg14
I00
sg15
I00
sg16
I40
sg17
g18
sg13
g0
(g19
g20
(lp1800
S'ak4PFCHSL1Offset'
p1801
ag591
ag1333
atp1802
Rp1803
(dp1804
g14
I00
sg29
I01
sg15
I00
sg30
I1
sbsg31
g1795
sg32
g33
sbsS'ak10PFL2L3'
p1805
g0
(g7
g2
Ntp1806
Rp1807
(dp1808
g11
(lp1809
g13
asg14
I00
sg15
I00
sg16
I40
sg17
g18
sg13
g0
(g19
g20
(lp1810
g585
ag586
atp1811
Rp1812
(dp1813
g14
I00
sg29
I01
sg15
I00
sg30
I1
sbsg31
g1805
sg32
g33
sbsS'ak3PFL1L2L3Residual'
p1814
g0
(g7
g2
Ntp1815
Rp1816
(dp1817
g11
(lp1818
g13
asg14
I00
sg15
I00
sg16
I40
sg17
g18
sg13
g0
(g19
g20
(lp1819
S'ak3PFL1Offset'
p1820
ag1322
ag1323
aS'ak3PFResidual'
p1821
atp1822
Rp1823
(dp1824
g14
I00
sg29
I01
sg15
I00
sg30
I1
sbsg31
g1814
sg32
g33
sbsS'ak2PFCHSL1Offset'
p1825
g0
(g7
g2
Ntp1826
Rp1827
(dp1828
g11
(lp1829
g137
ag138
ag40
ag41
asg14
I00
sg15
I00
sg40
g0
(g42
g2
Ntp1830
Rp1831
(dp1832
g14
I00
sg29
I01
sg46
g1130
sg15
I01
sbsg137
g0
(g143
g2
Ntp1833
Rp1834
(dp1835
g14
I00
sg29
I01
sg46
I4
sg15
I00
sbsg17
g52
sg41
g0
(g42
g2
Ntp1836
Rp1837
(dp1838
g14
I00
sg29
I01
sg46
g150
sg15
I00
sbsg138
g0
(g42
g2
Ntp1839
Rp1840
(dp1841
g14
I00
sg29
I01
sg46
g154
sg15
I00
sbsg16
I21
sg31
g1825
sg32
g155
sbsg706
g708
sS'ak7PFCHSL1FastL2L3'
p1842
g0
(g7
g2
Ntp1843
Rp1844
(dp1845
g11
(lp1846
g13
asg14
I00
sg15
I00
sg16
I601
sg17
g52
sg13
g0
(g19
g20
(lp1847
S'ak4PFCHSL1Fastjet'
p1848
ag656
ag657
atp1849
Rp1850
(dp1851
g14
I00
sg29
I01
sg15
I00
sg30
I1
sbsg31
g1842
sg32
g33
sbsg1155
g0
(g7
g2
Ntp1852
Rp1853
(dp1854
g11
(lp1855
g40
ag41
asg14
I00
sg15
I00
sg40
g0
(g42
g2
Ntp1856
Rp1857
(dp1858
g14
I00
sg29
I01
sg46
g1202
sg15
I01
sbsg41
g0
(g42
g2
Ntp1859
Rp1860
(dp1861
g14
I00
sg29
I01
sg46
g304
sg15
I00
sbsg17
g52
sg16
I134
sg31
g1155
sg32
g105
sbsS'ak2PFCHSL1FastjetL2L3Residual'
p1862
g0
(g7
g2
Ntp1863
Rp1864
(dp1865
g11
(lp1866
g13
asg14
I00
sg15
I00
sg16
I40
sg17
g18
sg13
g0
(g19
g20
(lp1867
S'ak2PFCHSL1Fastjet'
p1868
ag1122
ag1735
ag1736
atp1869
Rp1870
(dp1871
g14
I00
sg29
I01
sg15
I00
sg30
I1
sbsg31
g1862
sg32
g33
sbsg1153
g0
(g7
g2
Ntp1872
Rp1873
(dp1874
g11
(lp1875
g40
ag41
asg14
I00
sg15
I00
sg40
g0
(g42
g2
Ntp1876
Rp1877
(dp1878
g14
I00
sg29
I01
sg46
g1202
sg15
I01
sbsg41
g0
(g42
g2
Ntp1879
Rp1880
(dp1881
g14
I00
sg29
I01
sg46
g365
sg15
I00
sbsg17
g52
sg16
I77
sg31
g1153
sg32
g105
sbsS'ak1PFL1Fastjet'
p1882
g0
(g7
g2
Ntp1883
Rp1884
(dp1885
g11
(lp1886
g39
ag40
ag41
asg14
I00
sg15
I00
sg40
g0
(g42
g2
Ntp1887
Rp1888
(dp1889
g14
I00
sg29
I01
sg46
g1112
sg15
I01
sbsg41
g0
(g42
g2
Ntp1890
Rp1891
(dp1892
g14
I00
sg29
I01
sg46
g51
sg15
I00
sbsg17
g52
sg16
I48
sg39
g0
(g53
g2
Ntp1893
Rp1894
(dp1895
g14
I00
sg29
I01
sg15
I00
sg57
g91
sg59
g60
sg61
g60
sbsg31
g1882
sg32
g62
sbsg733
g1217
sS'ak4JPTL2L3'
p1896
g0
(g7
g2
Ntp1897
Rp1898
(dp1899
g11
(lp1900
g13
asg14
I00
sg15
I00
sg16
I40
sg17
g18
sg13
g0
(g19
g20
(lp1901
g22
ag23
ag24
atp1902
Rp1903
(dp1904
g14
I00
sg29
I01
sg15
I00
sg30
I1
sbsg31
g1896
sg32
g33
sbsg127
g0
(g7
g2
Ntp1905
Rp1906
(dp1907
g11
(lp1908
g40
ag41
asg14
I00
sg15
I00
sg40
g0
(g42
g2
Ntp1909
Rp1910
(dp1911
g14
I00
sg29
I01
sg46
g1269
sg15
I01
sbsg41
g0
(g42
g2
Ntp1912
Rp1913
(dp1914
g14
I00
sg29
I01
sg46
g104
sg15
I00
sbsg17
g52
sg16
I122
sg31
g127
sg32
g105
sbsS'kt4CaloL1L2L3'
p1915
g0
(g7
g2
Ntp1916
Rp1917
(dp1918
g11
(lp1919
g13
asg14
I00
sg15
I00
sg16
I40
sg17
g18
sg13
g0
(g19
g20
(lp1920
S'kt4CaloL1Offset'
p1921
ag1153
ag1154
atp1922
Rp1923
(dp1924
g14
I00
sg29
I01
sg15
I00
sg30
I1
sbsg31
g1915
sg32
g33
sbsg119
g121
sg994
g996
sg1288
g1290
sg132
g134
sS'ak4PFL1FastL2L3L6'
p1925
g0
(g7
g2
Ntp1926
Rp1927
(dp1928
g11
(lp1929
g13
asg14
I00
sg15
I00
sg16
I245
sg17
g603
sg13
g0
(g19
g20
(lp1930
g173
ag1140
ag1141
aS'ak4PFL6SLB'
p1931
atp1932
Rp1933
(dp1934
g14
I00
sg29
I01
sg15
I00
sg30
I1
sbsg31
g1925
sg32
g33
sbsS'ak1PFCHSResidual'
p1935
g0
(g7
g2
Ntp1936
Rp1937
(dp1938
g11
(lp1939
g40
ag41
asg14
I00
sg15
I00
sg40
g0
(g42
g2
Ntp1940
Rp1941
(dp1942
g14
I00
sg29
I01
sg46
g830
sg15
I01
sbsg41
g0
(g42
g2
Ntp1943
Rp1944
(dp1945
g14
I00
sg29
I01
sg46
g304
sg15
I00
sbsg17
g52
sg16
I139
sg31
g1935
sg32
g105
sbsS'kt6CaloL2L3L6'
p1946
g0
(g7
g2
Ntp1947
Rp1948
(dp1949
g11
(lp1950
g13
asg14
I00
sg15
I00
sg16
I730
sg17
g52
sg13
g0
(g19
g20
(lp1951
g733
ag269
ag734
atp1952
Rp1953
(dp1954
g14
I00
sg29
I01
sg15
I00
sg30
I1
sbsg31
g1946
sg32
g33
sbsg196
g0
(g7
g2
Ntp1955
Rp1956
(dp1957
g11
(lp1958
g39
ag40
ag41
asg14
I00
sg15
I00
sg40
g0
(g42
g2
Ntp1959
Rp1960
(dp1961
g14
I00
sg29
I01
sg46
g1306
sg15
I01
sbsg41
g0
(g42
g2
Ntp1962
Rp1963
(dp1964
g14
I00
sg29
I01
sg46
g51
sg15
I00
sbsg17
g52
sg16
I70
sg39
g0
(g53
g2
Ntp1965
Rp1966
(dp1967
g14
I00
sg29
I01
sg15
I00
sg57
g58
sg59
g60
sg61
g60
sbsg31
g196
sg32
g62
sbsg585
g0
(g7
g2
Ntp1968
Rp1969
(dp1970
g11
(lp1971
g40
ag41
asg14
I00
sg15
I00
sg40
g0
(g42
g2
Ntp1972
Rp1973
(dp1974
g14
I00
sg29
I01
sg46
g763
sg15
I01
sbsg41
g0
(g42
g2
Ntp1975
Rp1976
(dp1977
g14
I00
sg29
I01
sg46
g365
sg15
I00
sbsg17
g52
sg16
I98
sg31
g585
sg32
g105
sbsS'ak7PFL1FastL2L3'
p1978
g0
(g7
g2
Ntp1979
Rp1980
(dp1981
g11
(lp1982
g13
asg14
I00
sg15
I00
sg16
I599
sg17
g52
sg13
g0
(g19
g20
(lp1983
g173
ag870
ag871
atp1984
Rp1985
(dp1986
g14
I00
sg29
I01
sg15
I00
sg30
I1
sbsg31
g1978
sg32
g33
sbsg156
g158
sS'ic5CaloL1Fastjet'
p1987
g0
(g7
g2
Ntp1988
Rp1989
(dp1990
g11
(lp1991
g39
ag40
ag41
asg14
I00
sg15
I00
sg40
g0
(g42
g2
Ntp1992
Rp1993
(dp1994
g14
I00
sg29
I01
sg46
S'IC5Calo'
p1995
sg15
I01
sbsg41
g0
(g42
g2
Ntp1996
Rp1997
(dp1998
g14
I00
sg29
I01
sg46
g51
sg15
I00
sbsg17
g52
sg16
I46
sg39
g0
(g53
g2
Ntp1999
Rp2000
(dp2001
g14
I00
sg29
I01
sg15
I00
sg57
g58
sg59
g60
sg61
g60
sbsg31
g1987
sg32
g62
sbsS'ak4PFCHSL1FastL2L3Residual'
p2002
g0
(g7
g2
Ntp2003
Rp2004
(dp2005
g11
(lp2006
g13
asg14
I00
sg15
I00
sg16
I40
sg17
g18
sg13
g0
(g19
g20
(lp2007
g1848
ag591
ag1333
ag1334
atp2008
Rp2009
(dp2010
g14
I00
sg29
I01
sg15
I00
sg30
I1
sbsg31
g2002
sg32
g33
sbsg178
g180
sS'ak8PFCHSL2L3Residual'
p2011
g0
(g7
g2
Ntp2012
Rp2013
(dp2014
g11
(lp2015
g13
asg14
I00
sg15
I00
sg16
I40
sg17
g18
sg13
g0
(g19
g20
(lp2016
g1099
ag216
ag1100
atp2017
Rp2018
(dp2019
g14
I00
sg29
I01
sg15
I00
sg30
I1
sbsg31
g2011
sg32
g33
sbsS'ak2PFCHSL1L2L3Residual'
p2020
g0
(g7
g2
Ntp2021
Rp2022
(dp2023
g11
(lp2024
g13
asg14
I00
sg15
I00
sg16
I40
sg17
g18
sg13
g0
(g19
g20
(lp2025
g1825
ag1122
ag1735
ag1736
atp2026
Rp2027
(dp2028
g14
I00
sg29
I01
sg15
I00
sg30
I1
sbsg31
g2020
sg32
g33
sbsg190
g192
sg212
g0
(g7
g2
Ntp2029
Rp2030
(dp2031
g11
(lp2032
g40
ag41
asg14
I00
sg15
I00
sg40
g0
(g42
g2
Ntp2033
Rp2034
(dp2035
g14
I00
sg29
I01
sg46
g142
sg15
I00
sbsg41
g0
(g42
g2
Ntp2036
Rp2037
(dp2038
g14
I00
sg29
I01
sg46
g304
sg15
I00
sbsg17
g18
sg16
I40
sg31
g212
sg32
g105
sbsg211
g0
(g7
g2
Ntp2039
Rp2040
(dp2041
g11
(lp2042
g40
ag41
asg14
I00
sg15
I00
sg40
g0
(g42
g2
Ntp2043
Rp2044
(dp2045
g14
I00
sg29
I01
sg46
g142
sg15
I00
sbsg41
g0
(g42
g2
Ntp2046
Rp2047
(dp2048
g14
I00
sg29
I01
sg46
g104
sg15
I00
sbsg17
g18
sg16
I40
sg31
g211
sg32
g105
sbsS'kt4CaloL1FastL2L3L6'
p2049
g0
(g7
g2
Ntp2050
Rp2051
(dp2052
g11
(lp2053
g13
asg14
I00
sg15
I00
sg16
I748
sg17
g52
sg13
g0
(g19
g20
(lp2054
g1921
ag1153
ag1154
aS'kt4CaloL6SLB'
p2055
atp2056
Rp2057
(dp2058
g14
I00
sg29
I01
sg15
I00
sg30
I1
sbsg31
g2049
sg32
g33
sbsg204
g206
sS'ak3PFL1Fastjet'
p2059
g0
(g7
g2
Ntp2060
Rp2061
(dp2062
g11
(lp2063
g39
ag40
ag41
asg14
I00
sg15
I00
sg40
g0
(g42
g2
Ntp2064
Rp2065
(dp2066
g14
I00
sg29
I01
sg46
S'AK3PF'
p2067
sg15
I01
sbsg41
g0
(g42
g2
Ntp2068
Rp2069
(dp2070
g14
I00
sg29
I01
sg46
g51
sg15
I00
sbsg17
g52
sg16
I52
sg39
g0
(g53
g2
Ntp2071
Rp2072
(dp2073
g14
I00
sg29
I01
sg15
I00
sg57
g91
sg59
g60
sg61
g60
sbsg31
g2059
sg32
g62
sbsg163
g0
(g7
g2
Ntp2074
Rp2075
(dp2076
g11
(lp2077
g40
ag41
asg14
I00
sg15
I00
sg40
g0
(g42
g2
Ntp2078
Rp2079
(dp2080
g14
I00
sg29
I01
sg46
g984
sg15
I01
sbsg41
g0
(g42
g2
Ntp2081
Rp2082
(dp2083
g14
I00
sg29
I01
sg46
g104
sg15
I00
sbsg17
g52
sg16
I128
sg31
g163
sg32
g105
sbsS'ak4PFCHSL2L3'
p2084
g0
(g7
g2
Ntp2085
Rp2086
(dp2087
g11
(lp2088
g13
asg14
I00
sg15
I00
sg16
I40
sg17
g18
sg13
g0
(g19
g20
(lp2089
g591
ag1333
atp2090
Rp2091
(dp2092
g14
I00
sg29
I01
sg15
I00
sg30
I1
sbsg31
g2084
sg32
g33
sbsg216
g218
sg228
g230
sS'kt6PFL2L3'
p2093
g0
(g7
g2
Ntp2094
Rp2095
(dp2096
g11
(lp2097
g13
asg14
I00
sg15
I00
sg16
I40
sg17
g18
sg13
g0
(g19
g20
(lp2098
g113
ag114
atp2099
Rp2100
(dp2101
g14
I00
sg29
I01
sg15
I00
sg30
I1
sbsg31
g2093
sg32
g33
sbsS'ak2PFCHSL2L3'
p2102
g0
(g7
g2
Ntp2103
Rp2104
(dp2105
g11
(lp2106
g13
asg14
I00
sg15
I00
sg16
I40
sg17
g18
sg13
g0
(g19
g20
(lp2107
g1122
ag1735
atp2108
Rp2109
(dp2110
g14
I00
sg29
I01
sg15
I00
sg30
I1
sbsg31
g2102
sg32
g33
sbsS'ic5PFL1FastL2L3L6'
p2111
g0
(g7
g2
Ntp2112
Rp2113
(dp2114
g11
(lp2115
g13
asg14
I00
sg15
I00
sg16
I761
sg17
g52
sg13
g0
(g19
g20
(lp2116
g173
ag263
ag264
ag1060
atp2117
Rp2118
(dp2119
g14
I00
sg29
I01
sg15
I00
sg30
I1
sbsg31
g2111
sg32
g33
sbsS'kt6PFL1FastL2L3Residual'
p2120
g0
(g7
g2
Ntp2121
Rp2122
(dp2123
g11
(lp2124
g13
asg14
I00
sg15
I00
sg16
I40
sg17
g18
sg13
g0
(g19
g20
(lp2125
S'kt6PFL1Fastjet'
p2126
ag113
ag114
ag115
atp2127
Rp2128
(dp2129
g14
I00
sg29
I01
sg15
I00
sg30
I1
sbsg31
g2120
sg32
g33
sbsS'kt6CaloL1FastL2L3'
p2130
g0
(g7
g2
Ntp2131
Rp2132
(dp2133
g11
(lp2134
g13
asg14
I00
sg15
I00
sg16
I594
sg17
g52
sg13
g0
(g19
g20
(lp2135
g311
ag733
ag269
atp2136
Rp2137
(dp2138
g14
I00
sg29
I01
sg15
I00
sg30
I1
sbsg31
g2130
sg32
g33
sbsg1000
g0
(g7
g2
Ntp2139
Rp2140
(dp2141
g11
(lp2142
g40
ag41
asg14
I00
sg15
I00
sg40
g0
(g42
g2
Ntp2143
Rp2144
(dp2145
g14
I00
sg29
I01
sg46
g984
sg15
I01
sbsg41
g0
(g42
g2
Ntp2146
Rp2147
(dp2148
g14
I00
sg29
I01
sg46
g304
sg15
I00
sbsg17
g52
sg16
I156
sg31
g1000
sg32
g105
sbsg269
g271
sS'kt6PFL1FastL2L3'
p2149
g0
(g7
g2
Ntp2150
Rp2151
(dp2152
g11
(lp2153
g13
asg14
I00
sg15
I00
sg16
I605
sg17
g52
sg13
g0
(g19
g20
(lp2154
g173
ag113
ag114
atp2155
Rp2156
(dp2157
g14
I00
sg29
I01
sg15
I00
sg30
I1
sbsg31
g2149
sg32
g33
sbsg282
g284
sg113
g0
(g7
g2
Ntp2158
Rp2159
(dp2160
g11
(lp2161
g40
ag41
asg14
I00
sg15
I00
sg40
g0
(g42
g2
Ntp2162
Rp2163
(dp2164
g14
I00
sg29
I01
sg46
g1050
sg15
I01
sbsg41
g0
(g42
g2
Ntp2165
Rp2166
(dp2167
g14
I00
sg29
I01
sg46
g365
sg15
I00
sbsg17
g52
sg16
I101
sg31
g113
sg32
g105
sbsg305
g307
sS'kt6CaloL1FastL2L3Residual'
p2168
g0
(g7
g2
Ntp2169
Rp2170
(dp2171
g11
(lp2172
g13
asg14
I00
sg15
I00
sg16
I40
sg17
g18
sg13
g0
(g19
g20
(lp2173
S'kt6CaloL1Fastjet'
p2174
ag733
ag269
ag818
atp2175
Rp2176
(dp2177
g14
I00
sg29
I01
sg15
I00
sg30
I1
sbsg31
g2168
sg32
g33
sbsg1801
g0
(g7
g2
Ntp2178
Rp2179
(dp2180
g11
(lp2181
g137
ag138
ag40
ag41
asg14
I00
sg15
I00
sg40
g0
(g42
g2
Ntp2182
Rp2183
(dp2184
g14
I00
sg29
I01
sg46
g599
sg15
I01
sbsg137
g0
(g143
g2
Ntp2185
Rp2186
(dp2187
g14
I00
sg29
I01
sg46
I4
sg15
I00
sbsg17
g603
sg41
g0
(g42
g2
Ntp2188
Rp2189
(dp2190
g14
I00
sg29
I01
sg46
g150
sg15
I00
sbsg138
g0
(g42
g2
Ntp2191
Rp2192
(dp2193
g14
I00
sg29
I01
sg46
g154
sg15
I00
sbsg16
I31
sg31
g1801
sg32
g155
sbsg72
g294
sS'siPixelQualityESProducer'
p2194
g0
(g7
g2
Ntp2195
Rp2196
(dp2197
g11
(lp2198
g1402
asg14
I00
sg15
I01
sg16
I40
sg17
g18
sg1402
g0
(g1415
g20
(lp2199
g0
(g424
g2
Ntp2200
Rp2201
(dp2202
g14
I00
sg29
I01
sg15
I00
sg676
g0
(g42
g2
Ntp2203
Rp2204
(dp2205
g14
I00
sg29
I01
sg46
S'SiPixelQualityFromDbRcd'
p2206
sg15
I00
sbsg1424
g0
(g42
g2
Ntp2207
Rp2208
(dp2209
g14
I00
sg29
I01
sg46
g60
sg15
I00
sbsg11
(lp2210
g676
ag1424
asbag0
(g424
g2
Ntp2211
Rp2212
(dp2213
g14
I00
sg29
I01
sg15
I00
sg676
g0
(g42
g2
Ntp2214
Rp2215
(dp2216
g14
I00
sg29
I01
sg46
S'SiPixelDetVOffRcd'
p2217
sg15
I00
sbsg1424
g0
(g42
g2
Ntp2218
Rp2219
(dp2220
g14
I00
sg29
I01
sg46
g60
sg15
I00
sbsg11
(lp2221
g676
ag1424
asbatp2222
Rp2223
(dp2224
g14
I00
sg29
I01
sg15
I00
sg30
I1
sbsg31
g2194
sg32
S'SiPixelQualityESProducer'
p2225
sbsg1921
g0
(g7
g2
Ntp2226
Rp2227
(dp2228
g11
(lp2229
g137
ag138
ag40
ag41
asg14
I00
sg15
I00
sg40
g0
(g42
g2
Ntp2230
Rp2231
(dp2232
g14
I00
sg29
I01
sg46
g1202
sg15
I01
sbsg137
g0
(g143
g2
Ntp2233
Rp2234
(dp2235
g14
I00
sg29
I01
sg46
I4
sg15
I00
sbsg17
g52
sg41
g0
(g42
g2
Ntp2236
Rp2237
(dp2238
g14
I00
sg29
I01
sg46
g150
sg15
I00
sbsg138
g0
(g42
g2
Ntp2239
Rp2240
(dp2241
g14
I00
sg29
I01
sg46
g154
sg15
I00
sbsg16
I12
sg31
g1921
sg32
g155
sbsg25
g0
(g7
g2
Ntp2242
Rp2243
(dp2244
g11
(lp2245
g40
ag41
asg14
I00
sg15
I00
sg40
g0
(g42
g2
Ntp2246
Rp2247
(dp2248
g14
I00
sg29
I01
sg46
S'AK5JPT'
p2249
sg15
I01
sbsg41
g0
(g42
g2
Ntp2250
Rp2251
(dp2252
g14
I00
sg29
I01
sg46
g304
sg15
I00
sbsg17
g603
sg16
I93
sg31
g25
sg32
g105
sbsS'ak2PFL1L2L3Residual'
p2253
g0
(g7
g2
Ntp2254
Rp2255
(dp2256
g11
(lp2257
g13
asg14
I00
sg15
I00
sg16
I40
sg17
g18
sg13
g0
(g19
g20
(lp2258
S'ak2PFL1Offset'
p2259
aS'ak2PFL2Relative'
p2260
ag92
aS'ak2PFResidual'
p2261
atp2262
Rp2263
(dp2264
g14
I00
sg29
I01
sg15
I00
sg30
I1
sbsg31
g2253
sg32
g33
sbsg1141
g0
(g7
g2
Ntp2265
Rp2266
(dp2267
g11
(lp2268
g40
ag41
asg14
I00
sg15
I00
sg40
g0
(g42
g2
Ntp2269
Rp2270
(dp2271
g14
I00
sg29
I01
sg46
g1359
sg15
I01
sbsg41
g0
(g42
g2
Ntp2272
Rp2273
(dp2274
g14
I00
sg29
I01
sg46
g104
sg15
I00
sbsg17
g603
sg16
I80
sg31
g1141
sg32
g105
sbsg953
g955
sS'ak4PFL2L3L6'
p2275
g0
(g7
g2
Ntp2276
Rp2277
(dp2278
g11
(lp2279
g13
asg14
I00
sg15
I00
sg16
I239
sg17
g603
sg13
g0
(g19
g20
(lp2280
g1140
ag1141
ag1931
atp2281
Rp2282
(dp2283
g14
I00
sg29
I01
sg15
I00
sg30
I1
sbsg31
g2275
sg32
g33
sbsg1316
g1318
sS'kt4PFL1FastL2L3L6'
p2284
g0
(g7
g2
Ntp2285
Rp2286
(dp2287
g11
(lp2288
g13
asg14
I00
sg15
I00
sg16
I757
sg17
g52
sg13
g0
(g19
g20
(lp2289
g173
ag162
ag163
ag604
atp2290
Rp2291
(dp2292
g14
I00
sg29
I01
sg15
I00
sg30
I1
sbsg31
g2284
sg32
g33
sbsg812
g814
sS'ak2PFL1Fastjet'
p2293
g0
(g7
g2
Ntp2294
Rp2295
(dp2296
g11
(lp2297
g39
ag40
ag41
asg14
I00
sg15
I00
sg40
g0
(g42
g2
Ntp2298
Rp2299
(dp2300
g14
I00
sg29
I01
sg46
g100
sg15
I01
sbsg41
g0
(g42
g2
Ntp2301
Rp2302
(dp2303
g14
I00
sg29
I01
sg46
g51
sg15
I00
sbsg17
g52
sg16
I50
sg39
g0
(g53
g2
Ntp2304
Rp2305
(dp2306
g14
I00
sg29
I01
sg15
I00
sg57
g91
sg59
g60
sg61
g60
sbsg31
g2293
sg32
g62
sbsg1333
g0
(g7
g2
Ntp2307
Rp2308
(dp2309
g11
(lp2310
g40
ag41
asg14
I00
sg15
I00
sg40
g0
(g42
g2
Ntp2311
Rp2312
(dp2313
g14
I00
sg29
I01
sg46
g599
sg15
I01
sbsg41
g0
(g42
g2
Ntp2314
Rp2315
(dp2316
g14
I00
sg29
I01
sg46
g104
sg15
I00
sbsg17
g603
sg16
I81
sg31
g1333
sg32
g105
sbsS'ic5PFL1FastL2L3Residual'
p2317
g0
(g7
g2
Ntp2318
Rp2319
(dp2320
g11
(lp2321
g13
asg14
I00
sg15
I00
sg16
I40
sg17
g18
sg13
g0
(g19
g20
(lp2322
S'ic5PFL1Fastjet'
p2323
ag263
ag264
ag265
atp2324
Rp2325
(dp2326
g14
I00
sg29
I01
sg15
I00
sg30
I1
sbsg31
g2317
sg32
g33
sbsS'ak4PFCHSL1L2L3Residual'
p2327
g0
(g7
g2
Ntp2328
Rp2329
(dp2330
g11
(lp2331
g13
asg14
I00
sg15
I00
sg16
I40
sg17
g18
sg13
g0
(g19
g20
(lp2332
g1801
ag591
ag1333
ag1334
atp2333
Rp2334
(dp2335
g14
I00
sg29
I01
sg15
I00
sg30
I1
sbsg31
g2327
sg32
g33
sbsg578
g580
sg842
g0
(g7
g2
Ntp2336
Rp2337
(dp2338
g11
(lp2339
g40
ag41
asg14
I00
sg15
I00
sg40
g0
(g42
g2
Ntp2340
Rp2341
(dp2342
g14
I00
sg29
I01
sg46
g1995
sg15
I01
sbsg41
g0
(g42
g2
Ntp2343
Rp2344
(dp2345
g14
I00
sg29
I01
sg46
g304
sg15
I00
sbsg17
g52
sg16
I136
sg31
g842
sg32
g105
sbsg591
g593
sS'ak8PFCHSL1FastjetL2L3Residual'
p2346
g0
(g7
g2
Ntp2347
Rp2348
(dp2349
g11
(lp2350
g13
asg14
I00
sg15
I00
sg16
I40
sg17
g18
sg13
g0
(g19
g20
(lp2351
S'ak8PFCHSL1Fastjet'
p2352
ag1099
ag216
ag1100
atp2353
Rp2354
(dp2355
g14
I00
sg29
I01
sg15
I00
sg30
I1
sbsg31
g2346
sg32
g33
sbsg2261
g0
(g7
g2
Ntp2356
Rp2357
(dp2358
g11
(lp2359
g40
ag41
asg14
I00
sg15
I00
sg40
g0
(g42
g2
Ntp2360
Rp2361
(dp2362
g14
I00
sg29
I01
sg46
g100
sg15
I01
sbsg41
g0
(g42
g2
Ntp2363
Rp2364
(dp2365
g14
I00
sg29
I01
sg46
g304
sg15
I00
sbsg17
g52
sg16
I140
sg31
g2261
sg32
g105
sbsS'ic5CaloL1L2L3Residual'
p2366
g0
(g7
g2
Ntp2367
Rp2368
(dp2369
g11
(lp2370
g13
asg14
I00
sg15
I00
sg16
I40
sg17
g18
sg13
g0
(g19
g20
(lp2371
g1039
ag840
ag841
ag842
atp2372
Rp2373
(dp2374
g14
I00
sg29
I01
sg15
I00
sg30
I1
sbsg31
g2366
sg32
g33
sbsg1154
g1196
sS'ak4CaloL1FastL2L3Residual'
p2375
g0
(g7
g2
Ntp2376
Rp2377
(dp2378
g11
(lp2379
g13
asg14
I00
sg15
I00
sg16
I40
sg17
g18
sg13
g0
(g19
g20
(lp2380
g311
ag210
ag211
ag212
atp2381
Rp2382
(dp2383
g14
I00
sg29
I01
sg15
I00
sg30
I1
sbsg31
g2375
sg32
g33
sbsg799
g0
(g7
g2
Ntp2384
Rp2385
(dp2386
g11
(lp2387
g40
ag41
asg14
I00
sg15
I00
sg40
g0
(g42
g2
Ntp2388
Rp2389
(dp2390
g14
I00
sg29
I01
sg46
g1188
sg15
I01
sbsg41
g0
(g42
g2
Ntp2391
Rp2392
(dp2393
g14
I00
sg29
I01
sg46
g304
sg15
I00
sbsg17
g52
sg16
I143
sg31
g799
sg32
g105
sbsg637
g639
sg1820
g0
(g7
g2
Ntp2394
Rp2395
(dp2396
g11
(lp2397
g137
ag138
ag40
ag41
asg14
I00
sg15
I00
sg40
g0
(g42
g2
Ntp2398
Rp2399
(dp2400
g14
I00
sg29
I01
sg46
g2067
sg15
I01
sbsg137
g0
(g143
g2
Ntp2401
Rp2402
(dp2403
g14
I00
sg29
I01
sg46
I4
sg15
I00
sbsg17
g52
sg41
g0
(g42
g2
Ntp2404
Rp2405
(dp2406
g14
I00
sg29
I01
sg46
g150
sg15
I00
sbsg138
g0
(g42
g2
Ntp2407
Rp2408
(dp2409
g14
I00
sg29
I01
sg46
g154
sg15
I00
sbsg16
I22
sg31
g1820
sg32
g155
sbsg650
g652
sS'kt4PFL1FastL2L3Residual'
p2410
g0
(g7
g2
Ntp2411
Rp2412
(dp2413
g11
(lp2414
g13
asg14
I00
sg15
I00
sg16
I40
sg17
g18
sg13
g0
(g19
g20
(lp2415
g1338
ag162
ag163
ag1000
atp2416
Rp2417
(dp2418
g14
I00
sg29
I01
sg15
I00
sg30
I1
sbsg31
g2410
sg32
g33
sbsS'ak3PFL2L3Residual'
p2419
g0
(g7
g2
Ntp2420
Rp2421
(dp2422
g11
(lp2423
g13
asg14
I00
sg15
I00
sg16
I40
sg17
g18
sg13
g0
(g19
g20
(lp2424
g1322
ag1323
ag1821
atp2425
Rp2426
(dp2427
g14
I00
sg29
I01
sg15
I00
sg30
I1
sbsg31
g2419
sg32
g33
sbsg1054
g1056
sS'ak3PFCHSL2L3'
p2428
g0
(g7
g2
Ntp2429
Rp2430
(dp2431
g11
(lp2432
g13
asg14
I00
sg15
I00
sg16
I40
sg17
g18
sg13
g0
(g19
g20
(lp2433
g797
ag798
atp2434
Rp2435
(dp2436
g14
I00
sg29
I01
sg15
I00
sg30
I1
sbsg31
g2428
sg32
g33
sbsg1024
g1026
sg262
g0
(g7
g2
Ntp2437
Rp2438
(dp2439
g11
(lp2440
g137
ag138
ag40
ag41
asg14
I00
sg15
I00
sg40
g0
(g42
g2
Ntp2441
Rp2442
(dp2443
g14
I00
sg29
I01
sg46
g777
sg15
I01
sbsg137
g0
(g143
g2
Ntp2444
Rp2445
(dp2446
g14
I00
sg29
I01
sg46
I4
sg15
I00
sbsg17
g52
sg41
g0
(g42
g2
Ntp2447
Rp2448
(dp2449
g14
I00
sg29
I01
sg46
g150
sg15
I00
sbsg138
g0
(g42
g2
Ntp2450
Rp2451
(dp2452
g14
I00
sg29
I01
sg46
g154
sg15
I00
sbsg16
I38
sg31
g262
sg32
g155
sbsS'ak9PFCHSL1FastjetL2L3Residual'
p2453
g0
(g7
g2
Ntp2454
Rp2455
(dp2456
g11
(lp2457
g13
asg14
I00
sg15
I00
sg16
I40
sg17
g18
sg13
g0
(g19
g20
(lp2458
S'ak9PFCHSL1Fastjet'
p2459
ag897
ag1665
aS'ak9PFCHSResidual'
p2460
atp2461
Rp2462
(dp2463
g14
I00
sg29
I01
sg15
I00
sg30
I1
sbsg31
g2453
sg32
g33
sbsg185
g0
(g7
g2
Ntp2464
Rp2465
(dp2466
g11
(lp2467
g40
ag41
asg14
I00
sg15
I00
sg40
g0
(g42
g2
Ntp2468
Rp2469
(dp2470
g14
I00
sg29
I01
sg46
g1766
sg15
I01
sbsg41
g0
(g42
g2
Ntp2471
Rp2472
(dp2473
g14
I00
sg29
I01
sg46
g104
sg15
I00
sbsg17
g52
sg16
I117
sg31
g185
sg32
g105
sbsS'ak6PFL3Absolute'
p2474
g0
(g7
g2
Ntp2475
Rp2476
(dp2477
g11
(lp2478
g40
ag41
asg14
I00
sg15
I00
sg40
g0
(g42
g2
Ntp2479
Rp2480
(dp2481
g14
I00
sg29
I01
sg46
g1679
sg15
I01
sbsg41
g0
(g42
g2
Ntp2482
Rp2483
(dp2484
g14
I00
sg29
I01
sg46
g104
sg15
I00
sbsg17
g52
sg16
I118
sg31
g2474
sg32
g105
sbsS'ak6PFL1Fastjet'
p2485
g0
(g7
g2
Ntp2486
Rp2487
(dp2488
g11
(lp2489
g39
ag40
ag41
asg14
I00
sg15
I00
sg40
g0
(g42
g2
Ntp2490
Rp2491
(dp2492
g14
I00
sg29
I01
sg46
g1679
sg15
I01
sbsg41
g0
(g42
g2
Ntp2493
Rp2494
(dp2495
g14
I00
sg29
I01
sg46
g51
sg15
I00
sbsg17
g52
sg16
I56
sg39
g0
(g53
g2
Ntp2496
Rp2497
(dp2498
g14
I00
sg29
I01
sg15
I00
sg57
g91
sg59
g60
sg61
g60
sbsg31
g2485
sg32
g62
sbsS'ak6PFCHSL1L2L3Residual'
p2499
g0
(g7
g2
Ntp2500
Rp2501
(dp2502
g11
(lp2503
g13
asg14
I00
sg15
I00
sg16
I40
sg17
g18
sg13
g0
(g19
g20
(lp2504
S'ak6PFCHSL1Offset'
p2505
ag288
ag289
aS'ak6PFCHSResidual'
p2506
atp2507
Rp2508
(dp2509
g14
I00
sg29
I01
sg15
I00
sg30
I1
sbsg31
g2499
sg32
g33
sbsS'ak10PFL1FastjetL2L3Residual'
p2510
g0
(g7
g2
Ntp2511
Rp2512
(dp2513
g11
(lp2514
g13
asg14
I00
sg15
I00
sg16
I40
sg17
g18
sg13
g0
(g19
g20
(lp2515
g755
ag585
ag586
ag587
atp2516
Rp2517
(dp2518
g14
I00
sg29
I01
sg15
I00
sg30
I1
sbsg31
g2510
sg32
g33
sbsg2055
g0
(g7
g2
Ntp2519
Rp2520
(dp2521
g11
(lp2522
g233
ag234
ag235
ag40
ag41
asg14
I00
sg15
I00
sg40
g0
(g42
g2
Ntp2523
Rp2524
(dp2525
g14
I00
sg29
I01
sg46
g60
sg15
I00
sbsg233
g0
(g53
g2
Ntp2526
Rp2527
(dp2528
g14
I00
sg29
I01
sg15
I00
sg57
S'kt4CaloJetsSoftElectronTagInfos'
p2529
sg61
g60
sg59
g60
sbsg17
g52
sg41
g0
(g42
g2
Ntp2530
Rp2531
(dp2532
g14
I00
sg29
I01
sg46
g246
sg15
I00
sbsg234
g0
(g53
g2
Ntp2533
Rp2534
(dp2535
g14
I00
sg29
I01
sg15
I00
sg57
S'kt4CaloJetsSoftMuonTagInfos'
p2536
sg61
g60
sg59
g60
sbsg16
I168
sg235
g0
(g251
g2
Ntp2537
Rp2538
(dp2539
g14
I00
sg29
I01
sg46
I01
sg15
I00
sbsg31
g2055
sg32
g255
sbsg1369
g0
(g7
g2
Ntp2540
Rp2541
(dp2542
g11
(lp2543
g39
ag40
ag41
asg14
I00
sg15
I00
sg40
g0
(g42
g2
Ntp2544
Rp2545
(dp2546
g14
I00
sg29
I01
sg46
g300
sg15
I01
sbsg41
g0
(g42
g2
Ntp2547
Rp2548
(dp2549
g14
I00
sg29
I01
sg46
g51
sg15
I00
sbsg17
g52
sg16
I65
sg39
g0
(g53
g2
Ntp2550
Rp2551
(dp2552
g14
I00
sg29
I01
sg15
I00
sg57
g91
sg59
g60
sg61
g60
sbsg31
g1369
sg32
g62
sbsS'ic5PFL1L2L3'
p2553
g0
(g7
g2
Ntp2554
Rp2555
(dp2556
g11
(lp2557
g13
asg14
I00
sg15
I00
sg16
I40
sg17
g18
sg13
g0
(g19
g20
(lp2558
g262
ag263
ag264
atp2559
Rp2560
(dp2561
g14
I00
sg29
I01
sg15
I00
sg30
I1
sbsg31
g2553
sg32
g33
sbsS'ak4PFL1L2L3'
p2562
g0
(g7
g2
Ntp2563
Rp2564
(dp2565
g11
(lp2566
g13
asg14
I00
sg15
I00
sg16
I40
sg17
g18
sg13
g0
(g19
g20
(lp2567
S'ak4PFL1Offset'
p2568
ag1140
ag1141
atp2569
Rp2570
(dp2571
g14
I00
sg29
I01
sg15
I00
sg30
I1
sbsg31
g2562
sg32
g33
sbsg871
g0
(g7
g2
Ntp2572
Rp2573
(dp2574
g11
(lp2575
g40
ag41
asg14
I00
sg15
I00
sg40
g0
(g42
g2
Ntp2576
Rp2577
(dp2578
g14
I00
sg29
I01
sg46
g854
sg15
I01
sbsg41
g0
(g42
g2
Ntp2579
Rp2580
(dp2581
g14
I00
sg29
I01
sg46
g104
sg15
I00
sbsg17
g52
sg16
I120
sg31
g871
sg32
g105
sbsS'kt4PFL1L2L3Residual'
p2582
g0
(g7
g2
Ntp2583
Rp2584
(dp2585
g11
(lp2586
g13
asg14
I00
sg15
I00
sg16
I40
sg17
g18
sg13
g0
(g19
g20
(lp2587
g976
ag162
ag163
ag1000
atp2588
Rp2589
(dp2590
g14
I00
sg29
I01
sg15
I00
sg30
I1
sbsg31
g2582
sg32
g33
sbsg929
g0
(g7
g2
Ntp2591
Rp2592
(dp2593
g11
(lp2594
g40
ag41
asg14
I00
sg15
I00
sg40
g0
(g42
g2
Ntp2595
Rp2596
(dp2597
g14
I00
sg29
I01
sg46
g1112
sg15
I01
sbsg41
g0
(g42
g2
Ntp2598
Rp2599
(dp2600
g14
I00
sg29
I01
sg46
g104
sg15
I00
sbsg17
g52
sg16
I110
sg31
g929
sg32
g105
sbsg716
g718
sS'ak1PFCHSL1L2L3Residual'
p2601
g0
(g7
g2
Ntp2602
Rp2603
(dp2604
g11
(lp2605
g13
asg14
I00
sg15
I00
sg16
I40
sg17
g18
sg13
g0
(g19
g20
(lp2606
S'ak1PFCHSL1Offset'
p2607
aS'ak1PFCHSL2Relative'
p2608
ag822
ag1935
atp2609
Rp2610
(dp2611
g14
I00
sg29
I01
sg15
I00
sg30
I1
sbsg31
g2601
sg32
g33
sbsg265
g0
(g7
g2
Ntp2612
Rp2613
(dp2614
g11
(lp2615
g40
ag41
asg14
I00
sg15
I00
sg40
g0
(g42
g2
Ntp2616
Rp2617
(dp2618
g14
I00
sg29
I01
sg46
g777
sg15
I01
sbsg41
g0
(g42
g2
Ntp2619
Rp2620
(dp2621
g14
I00
sg29
I01
sg46
g304
sg15
I00
sbsg17
g52
sg16
I158
sg31
g265
sg32
g105
sbsg1327
g1329
sS'ak6PFL1FastjetL2L3Residual'
p2622
g0
(g7
g2
Ntp2623
Rp2624
(dp2625
g11
(lp2626
g13
asg14
I00
sg15
I00
sg16
I40
sg17
g18
sg13
g0
(g19
g20
(lp2627
g2485
aS'ak6PFL2Relative'
p2628
ag2474
ag1671
atp2629
Rp2630
(dp2631
g14
I00
sg29
I01
sg15
I00
sg30
I1
sbsg31
g2622
sg32
g33
sbsg738
g740
sg755
g757
sg1142
g0
(g7
g2
Ntp2632
Rp2633
(dp2634
g11
(lp2635
g40
ag41
asg14
I00
sg15
I00
sg40
g0
(g42
g2
Ntp2636
Rp2637
(dp2638
g14
I00
sg29
I01
sg46
g1359
sg15
I01
sbsg41
g0
(g42
g2
Ntp2639
Rp2640
(dp2641
g14
I00
sg29
I01
sg46
g304
sg15
I00
sbsg17
g603
sg16
I91
sg31
g1142
sg32
g105
sbsg959
g0
(g7
g2
Ntp2642
Rp2643
(dp2644
g11
(lp2645
g137
ag138
ag40
ag41
asg14
I00
sg15
I00
sg40
g0
(g42
g2
Ntp2646
Rp2647
(dp2648
g14
I00
sg29
I01
sg46
g47
sg15
I01
sbsg137
g0
(g143
g2
Ntp2649
Rp2650
(dp2651
g14
I00
sg29
I01
sg46
I4
sg15
I00
sbsg17
g52
sg41
g0
(g42
g2
Ntp2652
Rp2653
(dp2654
g14
I00
sg29
I01
sg46
g150
sg15
I00
sbsg138
g0
(g42
g2
Ntp2655
Rp2656
(dp2657
g14
I00
sg29
I01
sg46
g154
sg15
I00
sbsg16
I11
sg31
g959
sg32
g155
sbsS'ak7PFCHSL1L2L3Residual'
p2658
g0
(g7
g2
Ntp2659
Rp2660
(dp2661
g11
(lp2662
g13
asg14
I00
sg15
I00
sg16
I40
sg17
g18
sg13
g0
(g19
g20
(lp2663
g738
ag656
ag657
aS'ak7PFCHSResidual'
p2664
atp2665
Rp2666
(dp2667
g14
I00
sg29
I01
sg15
I00
sg30
I1
sbsg31
g2658
sg32
g33
sbsg2506
g0
(g7
g2
Ntp2668
Rp2669
(dp2670
g11
(lp2671
g40
ag41
asg14
I00
sg15
I00
sg40
g0
(g42
g2
Ntp2672
Rp2673
(dp2674
g14
I00
sg29
I01
sg46
S'AK6PFchs'
p2675
sg15
I01
sbsg41
g0
(g42
g2
Ntp2676
Rp2677
(dp2678
g14
I00
sg29
I01
sg46
g304
sg15
I00
sbsg17
g52
sg16
I147
sg31
g2506
sg32
g105
sbsS'ak9PFL1Offset'
p2679
g0
(g7
g2
Ntp2680
Rp2681
(dp2682
g11
(lp2683
g137
ag138
ag40
ag41
asg14
I00
sg15
I00
sg40
g0
(g42
g2
Ntp2684
Rp2685
(dp2686
g14
I00
sg29
I01
sg46
S'AK9PF'
p2687
sg15
I01
sbsg137
g0
(g143
g2
Ntp2688
Rp2689
(dp2690
g14
I00
sg29
I01
sg46
I4
sg15
I00
sbsg17
g52
sg41
g0
(g42
g2
Ntp2691
Rp2692
(dp2693
g14
I00
sg29
I01
sg46
g150
sg15
I00
sbsg138
g0
(g42
g2
Ntp2694
Rp2695
(dp2696
g14
I00
sg29
I01
sg46
g154
sg15
I00
sbsg16
I32
sg31
g2679
sg32
g155
sbsg940
g0
(g7
g2
Ntp2697
Rp2698
(dp2699
g11
(lp2700
g40
ag41
asg14
I00
sg15
I00
sg40
g0
(g42
g2
Ntp2701
Rp2702
(dp2703
g14
I00
sg29
I01
sg46
g854
sg15
I01
sbsg41
g0
(g42
g2
Ntp2704
Rp2705
(dp2706
g14
I00
sg29
I01
sg46
g304
sg15
I00
sbsg17
g52
sg16
I148
sg31
g940
sg32
g105
sbsS'kt6PFL2L3L6'
p2707
g0
(g7
g2
Ntp2708
Rp2709
(dp2710
g11
(lp2711
g13
asg14
I00
sg15
I00
sg16
I739
sg17
g52
sg13
g0
(g19
g20
(lp2712
g113
ag114
ag174
atp2713
Rp2714
(dp2715
g14
I00
sg29
I01
sg15
I00
sg30
I1
sbsg31
g2707
sg32
g33
sbsg586
g782
sg791
g793
sg803
g805
sS'ak7CaloL2L3Residual'
p2716
g0
(g7
g2
Ntp2717
Rp2718
(dp2719
g11
(lp2720
g13
asg14
I00
sg15
I00
sg16
I40
sg17
g18
sg13
g0
(g19
g20
(lp2721
g960
ag961
ag626
atp2722
Rp2723
(dp2724
g14
I00
sg29
I01
sg15
I00
sg30
I1
sbsg31
g2716
sg32
g33
sbsg288
g0
(g7
g2
Ntp2725
Rp2726
(dp2727
g11
(lp2728
g40
ag41
asg14
I00
sg15
I00
sg40
g0
(g42
g2
Ntp2729
Rp2730
(dp2731
g14
I00
sg29
I01
sg46
g2675
sg15
I01
sbsg41
g0
(g42
g2
Ntp2732
Rp2733
(dp2734
g14
I00
sg29
I01
sg46
g365
sg15
I00
sbsg17
g52
sg16
I91
sg31
g288
sg32
g105
sbsg1323
g0
(g7
g2
Ntp2735
Rp2736
(dp2737
g11
(lp2738
g40
ag41
asg14
I00
sg15
I00
sg40
g0
(g42
g2
Ntp2739
Rp2740
(dp2741
g14
I00
sg29
I01
sg46
g2067
sg15
I01
sbsg41
g0
(g42
g2
Ntp2742
Rp2743
(dp2744
g14
I00
sg29
I01
sg46
g104
sg15
I00
sbsg17
g52
sg16
I114
sg31
g1323
sg32
g105
sbsg822
g824
sS'ak4PFL1L2L3Residual'
p2745
g0
(g7
g2
Ntp2746
Rp2747
(dp2748
g11
(lp2749
g13
asg14
I00
sg15
I00
sg16
I40
sg17
g18
sg13
g0
(g19
g20
(lp2750
g2568
ag1140
ag1141
ag1142
atp2751
Rp2752
(dp2753
g14
I00
sg29
I01
sg15
I00
sg30
I1
sbsg31
g2745
sg32
g33
sbsg834
g836
sS'ak7JPTL1L2L3'
p2754
g0
(g7
g2
Ntp2755
Rp2756
(dp2757
g11
(lp2758
g13
asg14
I00
sg15
I00
sg16
I40
sg17
g18
sg13
g0
(g19
g20
(lp2759
g1298
ag197
ag198
ag199
atp2760
Rp2761
(dp2762
g14
I00
sg29
I01
sg15
I00
sg30
I1
sbsg31
g2754
sg32
g33
sbsg661
g663
sg1322
g0
(g7
g2
Ntp2763
Rp2764
(dp2765
g11
(lp2766
g40
ag41
asg14
I00
sg15
I00
sg40
g0
(g42
g2
Ntp2767
Rp2768
(dp2769
g14
I00
sg29
I01
sg46
g2067
sg15
I01
sbsg41
g0
(g42
g2
Ntp2770
Rp2771
(dp2772
g14
I00
sg29
I01
sg46
g365
sg15
I00
sbsg17
g52
sg16
I86
sg31
g1322
sg32
g105
sbsS'ic5PFL1FastL2L3'
p2773
g0
(g7
g2
Ntp2774
Rp2775
(dp2776
g11
(lp2777
g13
asg14
I00
sg15
I00
sg16
I607
sg17
g52
sg13
g0
(g19
g20
(lp2778
g173
ag263
ag264
atp2779
Rp2780
(dp2781
g14
I00
sg29
I01
sg15
I00
sg30
I1
sbsg31
g2773
sg32
g33
sbsg2664
g0
(g7
g2
Ntp2782
Rp2783
(dp2784
g11
(lp2785
g40
ag41
asg14
I00
sg15
I00
sg40
g0
(g42
g2
Ntp2786
Rp2787
(dp2788
g14
I00
sg29
I01
sg46
g84
sg15
I01
sbsg41
g0
(g42
g2
Ntp2789
Rp2790
(dp2791
g14
I00
sg29
I01
sg46
g304
sg15
I00
sbsg17
g52
sg16
I149
sg31
g2664
sg32
g105
sbsg846
g848
sS'ak8PFL2L3Residual'
p2792
g0
(g7
g2
Ntp2793
Rp2794
(dp2795
g11
(lp2796
g13
asg14
I00
sg15
I00
sg16
I40
sg17
g18
sg13
g0
(g19
g20
(lp2797
g126
ag127
ag128
atp2798
Rp2799
(dp2800
g14
I00
sg29
I01
sg15
I00
sg30
I1
sbsg31
g2792
sg32
g33
sbsg2323
g0
(g7
g2
Ntp2801
Rp2802
(dp2803
g11
(lp2804
g39
ag40
ag41
asg14
I00
sg15
I00
sg40
g0
(g42
g2
Ntp2805
Rp2806
(dp2807
g14
I00
sg29
I01
sg46
g777
sg15
I01
sbsg41
g0
(g42
g2
Ntp2808
Rp2809
(dp2810
g14
I00
sg29
I01
sg46
g51
sg15
I00
sbsg17
g52
sg16
I68
sg39
g0
(g53
g2
Ntp2811
Rp2812
(dp2813
g14
I00
sg29
I01
sg15
I00
sg57
g91
sg59
g60
sg61
g60
sbsg31
g2323
sg32
g62
sbsS'ak4CaloL1FastL2L3'
p2814
g0
(g7
g2
Ntp2815
Rp2816
(dp2817
g11
(lp2818
g13
asg14
I00
sg15
I00
sg16
I203
sg17
g603
sg13
g0
(g19
g20
(lp2819
g311
ag210
ag211
atp2820
Rp2821
(dp2822
g14
I00
sg29
I01
sg15
I00
sg30
I1
sbsg31
g2814
sg32
g33
sbsg864
g866
sg2628
g0
(g7
g2
Ntp2823
Rp2824
(dp2825
g11
(lp2826
g40
ag41
asg14
I00
sg15
I00
sg40
g0
(g42
g2
Ntp2827
Rp2828
(dp2829
g14
I00
sg29
I01
sg46
g1679
sg15
I01
sbsg41
g0
(g42
g2
Ntp2830
Rp2831
(dp2832
g14
I00
sg29
I01
sg46
g365
sg15
I00
sbsg17
g52
sg16
I90
sg31
g2628
sg32
g105
sbsg934
g936
sg1152
g0
(g7
g2
Ntp2833
Rp2834
(dp2835
g11
(lp2836
g39
ag40
ag41
asg14
I00
sg15
I00
sg40
g0
(g42
g2
Ntp2837
Rp2838
(dp2839
g14
I00
sg29
I01
sg46
g1202
sg15
I01
sbsg41
g0
(g42
g2
Ntp2840
Rp2841
(dp2842
g14
I00
sg29
I01
sg46
g51
sg15
I00
sbsg17
g52
sg16
I44
sg39
g0
(g53
g2
Ntp2843
Rp2844
(dp2845
g14
I00
sg29
I01
sg15
I00
sg57
g58
sg59
g60
sg61
g60
sbsg31
g1152
sg32
g62
sbsg112
g0
(g7
g2
Ntp2846
Rp2847
(dp2848
g11
(lp2849
g137
ag138
ag40
ag41
asg14
I00
sg15
I00
sg40
g0
(g42
g2
Ntp2850
Rp2851
(dp2852
g14
I00
sg29
I01
sg46
g1050
sg15
I01
sbsg137
g0
(g143
g2
Ntp2853
Rp2854
(dp2855
g14
I00
sg29
I01
sg46
I4
sg15
I00
sbsg17
g52
sg41
g0
(g42
g2
Ntp2856
Rp2857
(dp2858
g14
I00
sg29
I01
sg46
g150
sg15
I00
sbsg138
g0
(g42
g2
Ntp2859
Rp2860
(dp2861
g14
I00
sg29
I01
sg46
g154
sg15
I00
sbsg16
I37
sg31
g112
sg32
g155
sbsS'ak1PFCHSL1FastjetL2L3Residual'
p2862
g0
(g7
g2
Ntp2863
Rp2864
(dp2865
g11
(lp2866
g13
asg14
I00
sg15
I00
sg16
I40
sg17
g18
sg13
g0
(g19
g20
(lp2867
S'ak1PFCHSL1Fastjet'
p2868
ag2608
ag822
ag1935
atp2869
Rp2870
(dp2871
g14
I00
sg29
I01
sg15
I00
sg30
I1
sbsg31
g2862
sg32
g33
sbsg840
g0
(g7
g2
Ntp2872
Rp2873
(dp2874
g11
(lp2875
g40
ag41
asg14
I00
sg15
I00
sg40
g0
(g42
g2
Ntp2876
Rp2877
(dp2878
g14
I00
sg29
I01
sg46
g1995
sg15
I01
sbsg41
g0
(g42
g2
Ntp2879
Rp2880
(dp2881
g14
I00
sg29
I01
sg46
g365
sg15
I00
sbsg17
g52
sg16
I79
sg31
g840
sg32
g105
sbsS'ak7PFL1FastL2L3L6'
p2882
g0
(g7
g2
Ntp2883
Rp2884
(dp2885
g11
(lp2886
g13
asg14
I00
sg15
I00
sg16
I755
sg17
g52
sg13
g0
(g19
g20
(lp2887
g173
ag870
ag871
aS'ak7PFL6SLB'
p2888
atp2889
Rp2890
(dp2891
g14
I00
sg29
I01
sg15
I00
sg30
I1
sbsg31
g2882
sg32
g33
sbsg1294
g0
(g7
g2
Ntp2892
Rp2893
(dp2894
g11
(lp2895
g233
ag234
ag235
ag40
ag41
asg14
I00
sg15
I00
sg40
g0
(g42
g2
Ntp2896
Rp2897
(dp2898
g14
I00
sg29
I01
sg46
g60
sg15
I00
sbsg233
g0
(g53
g2
Ntp2899
Rp2900
(dp2901
g14
I00
sg29
I01
sg15
I00
sg57
S'ak7CaloJetsSoftElectronTagInfos'
p2902
sg61
g60
sg59
g60
sbsg17
g52
sg41
g0
(g42
g2
Ntp2903
Rp2904
(dp2905
g14
I00
sg29
I01
sg46
g246
sg15
I00
sbsg234
g0
(g53
g2
Ntp2906
Rp2907
(dp2908
g14
I00
sg29
I01
sg15
I00
sg57
S'ak7CaloJetsSoftMuonTagInfos'
p2909
sg61
g60
sg59
g60
sbsg16
I164
sg235
g0
(g251
g2
Ntp2910
Rp2911
(dp2912
g14
I00
sg29
I01
sg46
I01
sg15
I00
sbsg31
g1294
sg32
g255
sbsg1821
g0
(g7
g2
Ntp2913
Rp2914
(dp2915
g11
(lp2916
g40
ag41
asg14
I00
sg15
I00
sg40
g0
(g42
g2
Ntp2917
Rp2918
(dp2919
g14
I00
sg29
I01
sg46
g2067
sg15
I01
sbsg41
g0
(g42
g2
Ntp2920
Rp2921
(dp2922
g14
I00
sg29
I01
sg46
g304
sg15
I00
sbsg17
g52
sg16
I142
sg31
g1821
sg32
g105
sbsg1092
g1094
sg1098
g0
(g7
g2
Ntp2923
Rp2924
(dp2925
g11
(lp2926
g137
ag138
ag40
ag41
asg14
I00
sg15
I00
sg40
g0
(g42
g2
Ntp2927
Rp2928
(dp2929
g14
I00
sg29
I01
sg46
g224
sg15
I01
sbsg137
g0
(g143
g2
Ntp2930
Rp2931
(dp2932
g14
I00
sg29
I01
sg46
I4
sg15
I00
sbsg17
g52
sg41
g0
(g42
g2
Ntp2933
Rp2934
(dp2935
g14
I00
sg29
I01
sg46
g150
sg15
I00
sbsg138
g0
(g42
g2
Ntp2936
Rp2937
(dp2938
g14
I00
sg29
I01
sg46
g154
sg15
I00
sbsg16
I31
sg31
g1098
sg32
g155
sbsg1015
g1017
sg174
g877
sg897
g899
sg909
g911
sS'ak9PFCHSL1L2L3Residual'
p2939
g0
(g7
g2
Ntp2940
Rp2941
(dp2942
g11
(lp2943
g13
asg14
I00
sg15
I00
sg16
I40
sg17
g18
sg13
g0
(g19
g20
(lp2944
g1693
ag897
ag1665
ag2460
atp2945
Rp2946
(dp2947
g14
I00
sg29
I01
sg15
I00
sg30
I1
sbsg31
g2939
sg32
g33
sbsg1665
g0
(g7
g2
Ntp2948
Rp2949
(dp2950
g11
(lp2951
g40
ag41
asg14
I00
sg15
I00
sg40
g0
(g42
g2
Ntp2952
Rp2953
(dp2954
g14
I00
sg29
I01
sg46
g905
sg15
I01
sbsg41
g0
(g42
g2
Ntp2955
Rp2956
(dp2957
g14
I00
sg29
I01
sg46
g104
sg15
I00
sbsg17
g52
sg16
I125
sg31
g1665
sg32
g105
sbsS'ak7CaloL1FastL2L3Residual'
p2958
g0
(g7
g2
Ntp2959
Rp2960
(dp2961
g11
(lp2962
g13
asg14
I00
sg15
I00
sg16
I40
sg17
g18
sg13
g0
(g19
g20
(lp2963
g34
ag960
ag961
ag626
atp2964
Rp2965
(dp2966
g14
I00
sg29
I01
sg15
I00
sg30
I1
sbsg31
g2958
sg32
g33
sbsS'ak9PFL1FastjetL2L3Residual'
p2967
g0
(g7
g2
Ntp2968
Rp2969
(dp2970
g11
(lp2971
g13
asg14
I00
sg15
I00
sg16
I40
sg17
g18
sg13
g0
(g19
g20
(lp2972
S'ak9PFL1Fastjet'
p2973
ag915
ag916
ag917
atp2974
Rp2975
(dp2976
g14
I00
sg29
I01
sg15
I00
sg30
I1
sbsg31
g2967
sg32
g33
sbsS'ak4JPTL1Offset'
p2977
g0
(g7
g2
Ntp2978
Rp2979
(dp2980
g11
(lp2981
g137
ag138
ag40
ag41
asg14
I00
sg15
I00
sg40
g0
(g42
g2
Ntp2982
Rp2983
(dp2984
g14
I00
sg29
I01
sg46
g2249
sg15
I01
sbsg137
g0
(g143
g2
Ntp2985
Rp2986
(dp2987
g14
I00
sg29
I01
sg46
I4
sg15
I00
sbsg17
g603
sg41
g0
(g42
g2
Ntp2988
Rp2989
(dp2990
g14
I00
sg29
I01
sg46
g150
sg15
I00
sbsg138
g0
(g42
g2
Ntp2991
Rp2992
(dp2993
g14
I00
sg29
I01
sg46
g154
sg15
I00
sbsg16
I32
sg31
g2977
sg32
g155
sbsg167
g169
sg922
g924
sS'ak7PFCHSL2L3Residual'
p2994
g0
(g7
g2
Ntp2995
Rp2996
(dp2997
g11
(lp2998
g13
asg14
I00
sg15
I00
sg16
I40
sg17
g18
sg13
g0
(g19
g20
(lp2999
g656
ag657
ag2664
atp3000
Rp3001
(dp3002
g14
I00
sg29
I01
sg15
I00
sg30
I1
sbsg31
g2994
sg32
g33
sbsg173
g0
(g7
g2
Ntp3003
Rp3004
(dp3005
g11
(lp3006
g39
ag40
ag41
asg14
I00
sg15
I00
sg40
g0
(g42
g2
Ntp3007
Rp3008
(dp3009
g14
I00
sg29
I01
sg46
g1359
sg15
I00
sbsg41
g0
(g42
g2
Ntp3010
Rp3011
(dp3012
g14
I00
sg29
I01
sg46
g51
sg15
I00
sbsg17
g18
sg16
I40
sg39
g0
(g53
g2
Ntp3013
Rp3014
(dp3015
g14
I00
sg29
I01
sg15
I00
sg57
g91
sg61
g60
sg59
g60
sbsg31
g173
sg32
g62
sbsg944
g946
sS'ak6PFL1Offset'
p3016
g0
(g7
g2
Ntp3017
Rp3018
(dp3019
g11
(lp3020
g137
ag138
ag40
ag41
asg14
I00
sg15
I00
sg40
g0
(g42
g2
Ntp3021
Rp3022
(dp3023
g14
I00
sg29
I01
sg46
g1679
sg15
I01
sbsg137
g0
(g143
g2
Ntp3024
Rp3025
(dp3026
g14
I00
sg29
I01
sg46
I4
sg15
I00
sbsg17
g52
sg41
g0
(g42
g2
Ntp3027
Rp3028
(dp3029
g14
I00
sg29
I01
sg46
g150
sg15
I00
sbsg138
g0
(g42
g2
Ntp3030
Rp3031
(dp3032
g14
I00
sg29
I01
sg46
g154
sg15
I00
sbsg16
I26
sg31
g3016
sg32
g155
sbsg125
g0
(g7
g2
Ntp3033
Rp3034
(dp3035
g11
(lp3036
g39
ag40
ag41
asg14
I00
sg15
I00
sg40
g0
(g42
g2
Ntp3037
Rp3038
(dp3039
g14
I00
sg29
I01
sg46
g1269
sg15
I01
sbsg41
g0
(g42
g2
Ntp3040
Rp3041
(dp3042
g14
I00
sg29
I01
sg46
g51
sg15
I00
sbsg17
g52
sg16
I60
sg39
g0
(g53
g2
Ntp3043
Rp3044
(dp3045
g14
I00
sg29
I01
sg15
I00
sg57
g91
sg59
g60
sg61
g60
sbsg31
g125
sg32
g62
sbsS'ak3PFL1FastjetL2L3Residual'
p3046
g0
(g7
g2
Ntp3047
Rp3048
(dp3049
g11
(lp3050
g13
asg14
I00
sg15
I00
sg16
I40
sg17
g18
sg13
g0
(g19
g20
(lp3051
g2059
ag1322
ag1323
ag1821
atp3052
Rp3053
(dp3054
g14
I00
sg29
I01
sg15
I00
sg30
I1
sbsg31
g3046
sg32
g33
sbsg1735
g0
(g7
g2
Ntp3055
Rp3056
(dp3057
g11
(lp3058
g40
ag41
asg14
I00
sg15
I00
sg40
g0
(g42
g2
Ntp3059
Rp3060
(dp3061
g14
I00
sg29
I01
sg46
g1130
sg15
I01
sbsg41
g0
(g42
g2
Ntp3062
Rp3063
(dp3064
g14
I00
sg29
I01
sg46
g104
sg15
I00
sbsg17
g52
sg16
I113
sg31
g1735
sg32
g105
sbsS'ak9PFCHSL2L3Residual'
p3065
g0
(g7
g2
Ntp3066
Rp3067
(dp3068
g11
(lp3069
g13
asg14
I00
sg15
I00
sg16
I40
sg17
g18
sg13
g0
(g19
g20
(lp3070
g897
ag1665
ag2460
atp3071
Rp3072
(dp3073
g14
I00
sg29
I01
sg15
I00
sg30
I1
sbsg31
g3065
sg32
g33
sbsg2973
g0
(g7
g2
Ntp3074
Rp3075
(dp3076
g11
(lp3077
g39
ag40
ag41
asg14
I00
sg15
I00
sg40
g0
(g42
g2
Ntp3078
Rp3079
(dp3080
g14
I00
sg29
I01
sg46
g2687
sg15
I01
sbsg41
g0
(g42
g2
Ntp3081
Rp3082
(dp3083
g14
I00
sg29
I01
sg46
g51
sg15
I00
sbsg17
g52
sg16
I62
sg39
g0
(g53
g2
Ntp3084
Rp3085
(dp3086
g14
I00
sg29
I01
sg15
I00
sg57
g91
sg59
g60
sg61
g60
sbsg31
g2973
sg32
g62
sbsS'ak1PFCHSL2L3'
p3087
g0
(g7
g2
Ntp3088
Rp3089
(dp3090
g11
(lp3091
g13
asg14
I00
sg15
I00
sg16
I40
sg17
g18
sg13
g0
(g19
g20
(lp3092
g2608
ag822
atp3093
Rp3094
(dp3095
g14
I00
sg29
I01
sg15
I00
sg30
I1
sbsg31
g3087
sg32
g33
sbsg2608
g0
(g7
g2
Ntp3096
Rp3097
(dp3098
g11
(lp3099
g40
ag41
asg14
I00
sg15
I00
sg40
g0
(g42
g2
Ntp3100
Rp3101
(dp3102
g14
I00
sg29
I01
sg46
g830
sg15
I01
sbsg41
g0
(g42
g2
Ntp3103
Rp3104
(dp3105
g14
I00
sg29
I01
sg46
g365
sg15
I00
sbsg17
g52
sg16
I83
sg31
g2608
sg32
g105
sbsg644
g966
sS'ak10PFCHSL2L3'
p3106
g0
(g7
g2
Ntp3107
Rp3108
(dp3109
g11
(lp3110
g13
asg14
I00
sg15
I00
sg16
I40
sg17
g18
sg13
g0
(g19
g20
(lp3111
g70
ag71
atp3112
Rp3113
(dp3114
g14
I00
sg29
I01
sg15
I00
sg30
I1
sbsg31
g3106
sg32
g33
sbsg2505
g0
(g7
g2
Ntp3115
Rp3116
(dp3117
g11
(lp3118
g137
ag138
ag40
ag41
asg14
I00
sg15
I00
sg40
g0
(g42
g2
Ntp3119
Rp3120
(dp3121
g14
I00
sg29
I01
sg46
g2675
sg15
I01
sbsg137
g0
(g143
g2
Ntp3122
Rp3123
(dp3124
g14
I00
sg29
I01
sg46
I4
sg15
I00
sbsg17
g52
sg41
g0
(g42
g2
Ntp3125
Rp3126
(dp3127
g14
I00
sg29
I01
sg46
g150
sg15
I00
sbsg138
g0
(g42
g2
Ntp3128
Rp3129
(dp3130
g14
I00
sg29
I01
sg46
g154
sg15
I00
sbsg16
I27
sg31
g2505
sg32
g155
sbsS'kt4CaloL2L3'
p3131
g0
(g7
g2
Ntp3132
Rp3133
(dp3134
g11
(lp3135
g13
asg14
I00
sg15
I00
sg16
I40
sg17
g18
sg13
g0
(g19
g20
(lp3136
g1153
ag1154
atp3137
Rp3138
(dp3139
g14
I00
sg29
I01
sg15
I00
sg30
I1
sbsg31
g3131
sg32
g33
sbsg626
g628
sg1206
g1208
sg2459
g0
(g7
g2
Ntp3140
Rp3141
(dp3142
g11
(lp3143
g39
ag40
ag41
asg14
I00
sg15
I00
sg40
g0
(g42
g2
Ntp3144
Rp3145
(dp3146
g14
I00
sg29
I01
sg46
g905
sg15
I01
sbsg41
g0
(g42
g2
Ntp3147
Rp3148
(dp3149
g14
I00
sg29
I01
sg46
g51
sg15
I00
sbsg17
g52
sg16
I63
sg39
g0
(g53
g2
Ntp3150
Rp3151
(dp3152
g14
I00
sg29
I01
sg15
I00
sg57
g91
sg59
g60
sg61
g60
sbsg31
g2459
sg32
g62
sbsg313
g1005
sg961
g0
(g7
g2
Ntp3153
Rp3154
(dp3155
g11
(lp3156
g40
ag41
asg14
I00
sg15
I00
sg40
g0
(g42
g2
Ntp3157
Rp3158
(dp3159
g14
I00
sg29
I01
sg46
g47
sg15
I01
sbsg41
g0
(g42
g2
Ntp3160
Rp3161
(dp3162
g14
I00
sg29
I01
sg46
g104
sg15
I00
sbsg17
g52
sg16
I105
sg31
g961
sg32
g105
sbsg106
g108
sS'ak7JPTL2L3'
p3163
g0
(g7
g2
Ntp3164
Rp3165
(dp3166
g11
(lp3167
g13
asg14
I00
sg15
I00
sg16
I40
sg17
g18
sg13
g0
(g19
g20
(lp3168
g197
ag198
ag199
atp3169
Rp3170
(dp3171
g14
I00
sg29
I01
sg15
I00
sg30
I1
sbsg31
g3163
sg32
g33
sbsS'ak2PFL2L3Residual'
p3172
g0
(g7
g2
Ntp3173
Rp3174
(dp3175
g11
(lp3176
g13
asg14
I00
sg15
I00
sg16
I40
sg17
g18
sg13
g0
(g19
g20
(lp3177
g2260
ag92
ag2261
atp3178
Rp3179
(dp3180
g14
I00
sg29
I01
sg15
I00
sg30
I1
sbsg31
g3172
sg32
g33
sbsS'ak4PFCHSL1FastL2L3'
p3181
g0
(g7
g2
Ntp3182
Rp3183
(dp3184
g11
(lp3185
g13
asg14
I00
sg15
I00
sg16
I207
sg17
g603
sg13
g0
(g19
g20
(lp3186
g1848
ag591
ag1333
atp3187
Rp3188
(dp3189
g14
I00
sg29
I01
sg15
I00
sg30
I1
sbsg31
g3181
sg32
g33
sbsg646
g0
(g7
g2
Ntp3190
Rp3191
(dp3192
g11
(lp3193
g40
ag41
asg14
I00
sg15
I00
sg40
g0
(g42
g2
Ntp3194
Rp3195
(dp3196
g14
I00
sg29
I01
sg46
g972
sg15
I01
sbsg41
g0
(g42
g2
Ntp3197
Rp3198
(dp3199
g14
I00
sg29
I01
sg46
g304
sg15
I00
sbsg17
g52
sg16
I144
sg31
g646
sg32
g105
sbsg23
g0
(g7
g2
Ntp3200
Rp3201
(dp3202
g11
(lp3203
g40
ag41
asg14
I00
sg15
I00
sg40
g0
(g42
g2
Ntp3204
Rp3205
(dp3206
g14
I00
sg29
I01
sg46
g2249
sg15
I01
sbsg41
g0
(g42
g2
Ntp3207
Rp3208
(dp3209
g14
I00
sg29
I01
sg46
g365
sg15
I00
sbsg17
g603
sg16
I71
sg31
g23
sg32
g105
sbsg256
g258
sg128
g1263
sg197
g0
(g7
g2
Ntp3210
Rp3211
(dp3212
g11
(lp3213
S'offsetService'
p3214
ag40
ag41
asg14
I00
sg15
I00
sg40
g0
(g42
g2
Ntp3215
Rp3216
(dp3217
g14
I00
sg29
I01
sg46
g1306
sg15
I01
sbsg41
g0
(g42
g2
Ntp3218
Rp3219
(dp3220
g14
I00
sg29
I01
sg46
S'L1JPTOffset'
p3221
sg15
I00
sbsg17
g52
sg16
I73
sg31
g197
sg32
S'L1JPTOffsetCorrectionESProducer'
p3222
sg3214
g0
(g42
g2
Ntp3223
Rp3224
(dp3225
g14
I00
sg29
I01
sg46
g132
sg15
I00
sbsbsS'ak6PFCHSL1Fastjet'
p3226
g0
(g7
g2
Ntp3227
Rp3228
(dp3229
g11
(lp3230
g39
ag40
ag41
asg14
I00
sg15
I00
sg40
g0
(g42
g2
Ntp3231
Rp3232
(dp3233
g14
I00
sg29
I01
sg46
g2675
sg15
I01
sbsg41
g0
(g42
g2
Ntp3234
Rp3235
(dp3236
g14
I00
sg29
I01
sg46
g51
sg15
I00
sbsg17
g52
sg16
I57
sg39
g0
(g53
g2
Ntp3237
Rp3238
(dp3239
g14
I00
sg29
I01
sg15
I00
sg57
g91
sg59
g60
sg61
g60
sbsg31
g3226
sg32
g62
sbsS'kt6PFL2L3Residual'
p3240
g0
(g7
g2
Ntp3241
Rp3242
(dp3243
g11
(lp3244
g13
asg14
I00
sg15
I00
sg16
I40
sg17
g18
sg13
g0
(g19
g20
(lp3245
g113
ag114
ag115
atp3246
Rp3247
(dp3248
g14
I00
sg29
I01
sg15
I00
sg30
I1
sbsg31
g3240
sg32
g33
sbsS'ak5PFL2L3Residual'
p3249
g0
(g7
g2
Ntp3250
Rp3251
(dp3252
g11
(lp3253
g13
asg14
I00
sg15
I00
sg16
I40
sg17
g18
sg13
g0
(g19
g20
(lp3254
g644
ag645
ag646
atp3255
Rp3256
(dp3257
g14
I00
sg29
I01
sg15
I00
sg30
I1
sbsg31
g3249
sg32
g33
sbsg1033
g1035
sg114
g1044
sg732
g0
(g7
g2
Ntp3258
Rp3259
(dp3260
g11
(lp3261
g137
ag138
ag40
ag41
asg14
I00
sg15
I00
sg40
g0
(g42
g2
Ntp3262
Rp3263
(dp3264
g14
I00
sg29
I01
sg46
g277
sg15
I01
sbsg137
g0
(g143
g2
Ntp3265
Rp3266
(dp3267
g14
I00
sg29
I01
sg46
I4
sg15
I00
sbsg17
g52
sg41
g0
(g42
g2
Ntp3268
Rp3269
(dp3270
g14
I00
sg29
I01
sg46
g150
sg15
I00
sbsg138
g0
(g42
g2
Ntp3271
Rp3272
(dp3273
g14
I00
sg29
I01
sg46
g154
sg15
I00
sbsg16
I13
sg31
g732
sg32
g155
sbsS'SiStripRecHitMatcherESProducer'
p3274
g0
(g7
g2
Ntp3275
Rp3276
(dp3277
g11
(lp3278
S'PreFilter'
p3279
aS'ComponentName'
p3280
aS'NSigmaInside'
p3281
asg14
I00
sg15
I00
sg17
g18
sg3280
g0
(g42
g2
Ntp3282
Rp3283
(dp3284
g14
I00
sg29
I01
sg46
S'StandardMatcher'
p3285
sg15
I00
sbsg3279
g0
(g251
g2
Ntp3286
Rp3287
(dp3288
g14
I00
sg29
I01
sg46
I00
sg15
I00
sbsg16
I40
sg3281
g0
(g489
g2
Ntp3289
Rp3290
(dp3291
g14
I00
sg29
I01
sg46
F3.0
sg15
I00
sbsg31
g3274
sg32
g3274
sbsS'ak7CaloL1L2L3Residual'
p3292
g0
(g7
g2
Ntp3293
Rp3294
(dp3295
g11
(lp3296
g13
asg14
I00
sg15
I00
sg16
I40
sg17
g18
sg13
g0
(g19
g20
(lp3297
g959
ag960
ag961
ag626
atp3298
Rp3299
(dp3300
g14
I00
sg29
I01
sg15
I00
sg30
I1
sbsg31
g3292
sg32
g33
sbsS'ak1PFCHSL2L3Residual'
p3301
g0
(g7
g2
Ntp3302
Rp3303
(dp3304
g11
(lp3305
g13
asg14
I00
sg15
I00
sg16
I40
sg17
g18
sg13
g0
(g19
g20
(lp3306
g2608
ag822
ag1935
atp3307
Rp3308
(dp3309
g14
I00
sg29
I01
sg15
I00
sg30
I1
sbsg31
g3301
sg32
g33
sbsg24
g0
(g7
g2
Ntp3310
Rp3311
(dp3312
g11
(lp3313
g40
ag41
asg14
I00
sg15
I00
sg40
g0
(g42
g2
Ntp3314
Rp3315
(dp3316
g14
I00
sg29
I01
sg46
g2249
sg15
I01
sbsg41
g0
(g42
g2
Ntp3317
Rp3318
(dp3319
g14
I00
sg29
I01
sg46
g104
sg15
I00
sbsg17
g603
sg16
I82
sg31
g24
sg32
g105
sbsS'kt6PFL1L2L3'
p3320
g0
(g7
g2
Ntp3321
Rp3322
(dp3323
g11
(lp3324
g13
asg14
I00
sg15
I00
sg16
I40
sg17
g18
sg13
g0
(g19
g20
(lp3325
g112
ag113
ag114
atp3326
Rp3327
(dp3328
g14
I00
sg29
I01
sg15
I00
sg30
I1
sbsg31
g3320
sg32
g33
sbsS'ak10PFL2L3Residual'
p3329
g0
(g7
g2
Ntp3330
Rp3331
(dp3332
g11
(lp3333
g13
asg14
I00
sg15
I00
sg16
I40
sg17
g18
sg13
g0
(g19
g20
(lp3334
g585
ag586
ag587
atp3335
Rp3336
(dp3337
g14
I00
sg29
I01
sg15
I00
sg30
I1
sbsg31
g3329
sg32
g33
sbsS'ak4JPTL2L3Residual'
p3338
g0
(g7
g2
Ntp3339
Rp3340
(dp3341
g11
(lp3342
g13
asg14
I00
sg15
I00
sg16
I40
sg17
g18
sg13
g0
(g19
g20
(lp3343
g22
ag23
ag24
ag25
atp3344
Rp3345
(dp3346
g14
I00
sg29
I01
sg15
I00
sg30
I1
sbsg31
g3338
sg32
g33
sbsg76
g78
sg2460
g0
(g7
g2
Ntp3347
Rp3348
(dp3349
g11
(lp3350
g40
ag41
asg14
I00
sg15
I00
sg40
g0
(g42
g2
Ntp3351
Rp3352
(dp3353
g14
I00
sg29
I01
sg46
g905
sg15
I01
sbsg41
g0
(g42
g2
Ntp3354
Rp3355
(dp3356
g14
I00
sg29
I01
sg46
g304
sg15
I00
sbsg17
g52
sg16
I153
sg31
g2460
sg32
g105
sbsg69
g0
(g7
g2
Ntp3357
Rp3358
(dp3359
g11
(lp3360
g137
ag138
ag40
ag41
asg14
I00
sg15
I00
sg40
g0
(g42
g2
Ntp3361
Rp3362
(dp3363
g14
I00
sg29
I01
sg46
g300
sg15
I01
sbsg137
g0
(g143
g2
Ntp3364
Rp3365
(dp3366
g14
I00
sg29
I01
sg46
I4
sg15
I00
sbsg17
g52
sg41
g0
(g42
g2
Ntp3367
Rp3368
(dp3369
g14
I00
sg29
I01
sg46
g150
sg15
I00
sbsg138
g0
(g42
g2
Ntp3370
Rp3371
(dp3372
g14
I00
sg29
I01
sg46
g154
sg15
I00
sbsg16
I35
sg31
g69
sg32
g155
sbsg1931
g0
(g7
g2
Ntp3373
Rp3374
(dp3375
g11
(lp3376
g233
ag234
ag235
ag40
ag41
asg14
I00
sg15
I00
sg40
g0
(g42
g2
Ntp3377
Rp3378
(dp3379
g14
I00
sg29
I01
sg46
g60
sg15
I00
sbsg233
g0
(g53
g2
Ntp3380
Rp3381
(dp3382
g14
I00
sg29
I01
sg15
I00
sg57
S'ak4PFJetsSoftElectronTagInfos'
p3383
sg61
g60
sg59
g60
sbsg17
g18
sg41
g0
(g42
g2
Ntp3384
Rp3385
(dp3386
g14
I00
sg29
I01
sg46
g246
sg15
I00
sbsg234
g0
(g53
g2
Ntp3387
Rp3388
(dp3389
g14
I00
sg29
I01
sg15
I00
sg57
S'ak4PFJetsSoftMuonTagInfos'
p3390
sg61
g60
sg59
g60
sbsg16
I40
sg235
g0
(g251
g2
Ntp3391
Rp3392
(dp3393
g14
I00
sg29
I01
sg46
I00
sg15
I00
sbsg31
g1931
sg32
g255
sbsS'ak4CaloL2L3'
p3394
g0
(g7
g2
Ntp3395
Rp3396
(dp3397
g11
(lp3398
g13
asg14
I00
sg15
I00
sg16
I40
sg17
g18
sg13
g0
(g19
g20
(lp3399
g210
ag211
atp3400
Rp3401
(dp3402
g14
I00
sg29
I01
sg15
I00
sg30
I1
sbsg31
g3394
sg32
g33
sbsS'kt4PFL2L3L6'
p3403
g0
(g7
g2
Ntp3404
Rp3405
(dp3406
g11
(lp3407
g13
asg14
I00
sg15
I00
sg16
I737
sg17
g52
sg13
g0
(g19
g20
(lp3408
g162
ag163
ag604
atp3409
Rp3410
(dp3411
g14
I00
sg29
I01
sg15
I00
sg30
I1
sbsg31
g3403
sg32
g33
sbsg870
g1065
sS'ak7CaloL1FastL2L3'
p3412
g0
(g7
g2
Ntp3413
Rp3414
(dp3415
g11
(lp3416
g13
asg14
I00
sg15
I00
sg16
I590
sg17
g52
sg13
g0
(g19
g20
(lp3417
g311
ag960
ag961
atp3418
Rp3419
(dp3420
g14
I00
sg29
I01
sg15
I00
sg30
I1
sbsg31
g3412
sg32
g33
sbsS'ic5CaloL1FastL2L3Residual'
p3421
g0
(g7
g2
Ntp3422
Rp3423
(dp3424
g11
(lp3425
g13
asg14
I00
sg15
I00
sg16
I40
sg17
g18
sg13
g0
(g19
g20
(lp3426
g1987
ag840
ag841
ag842
atp3427
Rp3428
(dp3429
g14
I00
sg29
I01
sg15
I00
sg30
I1
sbsg31
g3421
sg32
g33
sbsS'kt4PFL1L2L3'
p3430
g0
(g7
g2
Ntp3431
Rp3432
(dp3433
g11
(lp3434
g13
asg14
I00
sg15
I00
sg16
I40
sg17
g18
sg13
g0
(g19
g20
(lp3435
g976
ag162
ag163
atp3436
Rp3437
(dp3438
g14
I00
sg29
I01
sg15
I00
sg30
I1
sbsg31
g3430
sg32
g33
sbsg289
g0
(g7
g2
Ntp3439
Rp3440
(dp3441
g11
(lp3442
g40
ag41
asg14
I00
sg15
I00
sg40
g0
(g42
g2
Ntp3443
Rp3444
(dp3445
g14
I00
sg29
I01
sg46
g2675
sg15
I01
sbsg41
g0
(g42
g2
Ntp3446
Rp3447
(dp3448
g14
I00
sg29
I01
sg46
g104
sg15
I00
sbsg17
g52
sg16
I119
sg31
g289
sg32
g105
sbsg722
g0
(g7
g2
Ntp3449
Rp3450
(dp3451
g11
(lp3452
g39
ag40
ag41
asg14
I00
sg15
I00
sg40
g0
(g42
g2
Ntp3453
Rp3454
(dp3455
g14
I00
sg29
I01
sg46
g142
sg15
I00
sbsg41
g0
(g42
g2
Ntp3456
Rp3457
(dp3458
g14
I00
sg29
I01
sg46
g51
sg15
I00
sbsg17
g603
sg16
I61
sg39
g0
(g53
g2
Ntp3459
Rp3460
(dp3461
g14
I00
sg29
I01
sg15
I00
sg57
g58
sg59
g60
sg61
g60
sbsg31
g722
sg32
g62
sbsS'kt4CaloL2L3Residual'
p3462
g0
(g7
g2
Ntp3463
Rp3464
(dp3465
g11
(lp3466
g13
asg14
I00
sg15
I00
sg16
I40
sg17
g18
sg13
g0
(g19
g20
(lp3467
g1153
ag1154
ag1155
atp3468
Rp3469
(dp3470
g14
I00
sg29
I01
sg15
I00
sg30
I1
sbsg31
g3462
sg32
g33
sbsg162
g0
(g7
g2
Ntp3471
Rp3472
(dp3473
g11
(lp3474
g40
ag41
asg14
I00
sg15
I00
sg40
g0
(g42
g2
Ntp3475
Rp3476
(dp3477
g14
I00
sg29
I01
sg46
g984
sg15
I01
sbsg41
g0
(g42
g2
Ntp3478
Rp3479
(dp3480
g14
I00
sg29
I01
sg46
g365
sg15
I00
sbsg17
g52
sg16
I100
sg31
g162
sg32
g105
sbsS'ak4CaloL1L2L3'
p3481
g0
(g7
g2
Ntp3482
Rp3483
(dp3484
g11
(lp3485
g13
asg14
I00
sg15
I00
sg16
I40
sg17
g18
sg13
g0
(g19
g20
(lp3486
g132
ag210
ag211
atp3487
Rp3488
(dp3489
g14
I00
sg29
I01
sg15
I00
sg30
I1
sbsg31
g3481
sg32
g33
sbsS'siStripGainESProducer'
p3490
g0
(g7
g2
Ntp3491
Rp3492
(dp3493
g11
(lp3494
S'printDebug'
p3495
ag1397
aS'APVGain'
p3496
aS'AutomaticNormalization'
p3497
asg14
I00
sg1397
g0
(g42
g2
Ntp3498
Rp3499
(dp3500
g14
I00
sg29
I01
sg46
g60
sg15
I00
sbsg15
I00
sg3497
g0
(g251
g2
Ntp3501
Rp3502
(dp3503
g14
I00
sg29
I01
sg46
I00
sg15
I00
sbsg16
I40
sg3495
g0
(g251
g2
Ntp3504
Rp3505
(dp3506
g14
I00
sg29
I00
sg46
I00
sg15
I00
sbsg17
g18
sg3496
g0
(g1415
g20
(lp3507
g0
(g424
g2
Ntp3508
Rp3509
(dp3510
g14
I00
sg29
I01
sg15
I00
sS'Label'
p3511
g0
(g42
g2
Ntp3512
Rp3513
(dp3514
g14
I00
sg29
I00
sg46
g60
sg15
I00
sbsS'Record'
p3515
g0
(g42
g2
Ntp3516
Rp3517
(dp3518
g14
I00
sg29
I01
sg46
S'SiStripApvGainRcd'
p3519
sg15
I00
sbsS'NormalizationFactor'
p3520
g0
(g489
g2
Ntp3521
Rp3522
(dp3523
g14
I00
sg29
I00
sg46
F1.0
sg15
I00
sbsg11
(lp3524
g3515
ag3520
ag3511
asbag0
(g424
g2
Ntp3525
Rp3526
(dp3527
g14
I00
sg29
I01
sg15
I00
sg3511
g0
(g42
g2
Ntp3528
Rp3529
(dp3530
g14
I00
sg29
I00
sg46
g60
sg15
I00
sbsg3515
g0
(g42
g2
Ntp3531
Rp3532
(dp3533
g14
I00
sg29
I01
sg46
S'SiStripApvGain2Rcd'
p3534
sg15
I00
sbsg3520
g0
(g489
g2
Ntp3535
Rp3536
(dp3537
g14
I00
sg29
I00
sg46
F1.0
sg15
I00
sbsg11
(lp3538
g3515
ag3520
ag3511
asbatp3539
Rp3540
(dp3541
g14
I00
sg29
I01
sg15
I00
sg30
I1
sbsg31
g3490
sg32
S'SiStripGainESProducer'
p3542
sbsS'ak7PFL2L3L6'
p3543
g0
(g7
g2
Ntp3544
Rp3545
(dp3546
g11
(lp3547
g13
asg14
I00
sg15
I00
sg16
I735
sg17
g52
sg13
g0
(g19
g20
(lp3548
g870
ag871
ag2888
atp3549
Rp3550
(dp3551
g14
I00
sg29
I01
sg15
I00
sg30
I1
sbsg31
g3543
sg32
g33
sbsg1074
g1076
sg1083
g1085
sg2352
g0
(g7
g2
Ntp3552
Rp3553
(dp3554
g11
(lp3555
g39
ag40
ag41
asg14
I00
sg15
I00
sg40
g0
(g42
g2
Ntp3556
Rp3557
(dp3558
g14
I00
sg29
I01
sg46
g224
sg15
I01
sbsg41
g0
(g42
g2
Ntp3559
Rp3560
(dp3561
g14
I00
sg29
I01
sg46
g51
sg15
I00
sbsg17
g52
sg16
I61
sg39
g0
(g53
g2
Ntp3562
Rp3563
(dp3564
g14
I00
sg29
I01
sg15
I00
sg57
g91
sg59
g60
sg61
g60
sbsg31
g2352
sg32
g62
sbsg1104
g1106
sS'sistripconn'
p3565
g0
(g7
g2
Ntp3566
Rp3567
(dp3568
g11
(lp3569
sg14
I00
sg15
I00
sg16
I40
sg17
g18
sg31
g3565
sg32
S'SiStripConnectivity'
p3570
sbsS'ak6PFCHSL1FastjetL2L3Residual'
p3571
g0
(g7
g2
Ntp3572
Rp3573
(dp3574
g11
(lp3575
g13
asg14
I00
sg15
I00
sg16
I40
sg17
g18
sg13
g0
(g19
g20
(lp3576
g3226
ag288
ag289
ag2506
atp3577
Rp3578
(dp3579
g14
I00
sg29
I01
sg15
I00
sg30
I1
sbsg31
g3571
sg32
g33
sbsg1868
g0
(g7
g2
Ntp3580
Rp3581
(dp3582
g11
(lp3583
g39
ag40
ag41
asg14
I00
sg15
I00
sg40
g0
(g42
g2
Ntp3584
Rp3585
(dp3586
g14
I00
sg29
I01
sg46
g1130
sg15
I01
sbsg41
g0
(g42
g2
Ntp3587
Rp3588
(dp3589
g14
I00
sg29
I01
sg46
g51
sg15
I00
sbsg17
g52
sg16
I51
sg39
g0
(g53
g2
Ntp3590
Rp3591
(dp3592
g14
I00
sg29
I01
sg15
I00
sg57
g91
sg59
g60
sg61
g60
sbsg31
g1868
sg32
g62
sbsg1659
g1661
sS'ak4PFL1FastL2L3'
p3593
g0
(g7
g2
Ntp3594
Rp3595
(dp3596
g11
(lp3597
g13
asg14
I00
sg15
I00
sg16
I205
sg17
g603
sg13
g0
(g19
g20
(lp3598
g173
ag1140
ag1141
atp3599
Rp3600
(dp3601
g14
I00
sg29
I01
sg15
I00
sg30
I1
sbsg31
g3593
sg32
g33
sbsS'ak7PFL1Fastjet'
p3602
g0
(g7
g2
Ntp3603
Rp3604
(dp3605
g11
(lp3606
g39
ag40
ag41
asg14
I00
sg15
I00
sg40
g0
(g42
g2
Ntp3607
Rp3608
(dp3609
g14
I00
sg29
I01
sg46
g854
sg15
I01
sbsg41
g0
(g42
g2
Ntp3610
Rp3611
(dp3612
g14
I00
sg29
I01
sg46
g51
sg15
I00
sbsg17
g52
sg16
I58
sg39
g0
(g53
g2
Ntp3613
Rp3614
(dp3615
g14
I00
sg29
I01
sg15
I00
sg57
g91
sg59
g60
sg61
g60
sbsg31
g3602
sg32
g62
sbsS'siStripLorentzAngleDepESProducer'
p3616
g0
(g7
g2
Ntp3617
Rp3618
(dp3619
g11
(lp3620
g666
aS'LorentzAngleDeconvMode'
p3621
aS'LorentzAnglePeakMode'
p3622
asg14
I00
sg15
I00
sg16
I40
sg17
g18
sg666
g0
(g424
g2
Ntp3623
Rp3624
(dp3625
g14
I00
sg29
I01
sg15
I00
sg672
g0
(g42
g2
Ntp3626
Rp3627
(dp3628
g14
I00
sg29
I00
sg46
g60
sg15
I00
sbsg676
g0
(g42
g2
Ntp3629
Rp3630
(dp3631
g14
I00
sg29
I01
sg46
g680
sg15
I00
sbsg11
(lp3632
g676
ag672
asbsg31
g3616
sg3622
g0
(g424
g2
Ntp3633
Rp3634
(dp3635
g14
I00
sg29
I01
sg15
I00
sg672
g0
(g42
g2
Ntp3636
Rp3637
(dp3638
g14
I00
sg29
I00
sg46
g688
sg15
I00
sbsg676
g0
(g42
g2
Ntp3639
Rp3640
(dp3641
g14
I00
sg29
I01
sg46
S'SiStripLorentzAngleRcd'
p3642
sg15
I00
sbsg11
(lp3643
g676
ag672
asbsg32
S'SiStripLorentzAngleDepESProducer'
p3644
sg3621
g0
(g424
g2
Ntp3645
Rp3646
(dp3647
g14
I00
sg29
I01
sg15
I00
sg672
g0
(g42
g2
Ntp3648
Rp3649
(dp3650
g14
I00
sg29
I00
sg46
g700
sg15
I00
sbsg676
g0
(g42
g2
Ntp3651
Rp3652
(dp3653
g14
I00
sg29
I01
sg46
g3642
sg15
I00
sbsg11
(lp3654
g676
ag672
asbsbsg184
g0
(g7
g2
Ntp3655
Rp3656
(dp3657
g11
(lp3658
g40
ag41
asg14
I00
sg15
I00
sg40
g0
(g42
g2
Ntp3659
Rp3660
(dp3661
g14
I00
sg29
I01
sg46
g1766
sg15
I01
sbsg41
g0
(g42
g2
Ntp3662
Rp3663
(dp3664
g14
I00
sg29
I01
sg46
g365
sg15
I00
sbsg17
g52
sg16
I89
sg31
g184
sg32
g105
sbsg584
g0
(g7
g2
Ntp3665
Rp3666
(dp3667
g11
(lp3668
g137
ag138
ag40
ag41
asg14
I00
sg15
I00
sg40
g0
(g42
g2
Ntp3669
Rp3670
(dp3671
g14
I00
sg29
I01
sg46
g763
sg15
I01
sbsg137
g0
(g143
g2
Ntp3672
Rp3673
(dp3674
g14
I00
sg29
I01
sg46
I4
sg15
I00
sbsg17
g52
sg41
g0
(g42
g2
Ntp3675
Rp3676
(dp3677
g14
I00
sg29
I01
sg46
g150
sg15
I00
sbsg138
g0
(g42
g2
Ntp3678
Rp3679
(dp3680
g14
I00
sg29
I01
sg46
g154
sg15
I00
sbsg16
I34
sg31
g584
sg32
g155
sbsg1122
g1124
sg726
g728
sS'ak4PFL2L3'
p3681
g0
(g7
g2
Ntp3682
Rp3683
(dp3684
g11
(lp3685
g13
asg14
I00
sg15
I00
sg16
I40
sg17
g18
sg13
g0
(g19
g20
(lp3686
g1140
ag1141
atp3687
Rp3688
(dp3689
g14
I00
sg29
I01
sg15
I00
sg30
I1
sbsg31
g3681
sg32
g33
sbsg917
g0
(g7
g2
Ntp3690
Rp3691
(dp3692
g11
(lp3693
g40
ag41
asg14
I00
sg15
I00
sg40
g0
(g42
g2
Ntp3694
Rp3695
(dp3696
g14
I00
sg29
I01
sg46
g2687
sg15
I01
sbsg41
g0
(g42
g2
Ntp3697
Rp3698
(dp3699
g14
I00
sg29
I01
sg46
g304
sg15
I00
sbsg17
g52
sg16
I152
sg31
g917
sg32
g105
sbsg186
g0
(g7
g2
Ntp3700
Rp3701
(dp3702
g11
(lp3703
g40
ag41
asg14
I00
sg15
I00
sg40
g0
(g42
g2
Ntp3704
Rp3705
(dp3706
g14
I00
sg29
I01
sg46
g1766
sg15
I01
sbsg41
g0
(g42
g2
Ntp3707
Rp3708
(dp3709
g14
I00
sg29
I01
sg46
g304
sg15
I00
sbsg17
g52
sg16
I145
sg31
g186
sg32
g105
sbsg1134
g1136
sS'ak4PFL2L3Residual'
p3710
g0
(g7
g2
Ntp3711
Rp3712
(dp3713
g11
(lp3714
g13
asg14
I00
sg15
I00
sg16
I40
sg17
g18
sg13
g0
(g19
g20
(lp3715
g1140
ag1141
ag1142
atp3716
Rp3717
(dp3718
g14
I00
sg29
I01
sg15
I00
sg30
I1
sbsg31
g3710
sg32
g33
sbsS'stripCPEESProducer'
p3719
g0
(g7
g2
Ntp3720
Rp3721
(dp3722
g11
(lp3723
S'ComponentType'
p3724
ag3280
aS'parameters'
p3725
asg14
I00
sg15
I00
sg3725
g0
(g424
g2
Ntp3726
Rp3727
(dp3728
g14
I00
sg29
I01
sg15
I00
sg11
(lp3729
sbsg16
I40
sg3280
g0
(g42
g2
Ntp3730
Rp3731
(dp3732
g14
I00
sg29
I01
sg46
S'stripCPE'
p3733
sg15
I00
sbsg3724
g0
(g42
g2
Ntp3734
Rp3735
(dp3736
g14
I00
sg29
I01
sg46
S'SimpleStripCPE'
p3737
sg15
I00
sbsg17
g18
sg31
g3719
sg32
S'StripCPEESProducer'
p3738
sbsg2607
g0
(g7
g2
Ntp3739
Rp3740
(dp3741
g11
(lp3742
g137
ag138
ag40
ag41
asg14
I00
sg15
I00
sg40
g0
(g42
g2
Ntp3743
Rp3744
(dp3745
g14
I00
sg29
I01
sg46
g830
sg15
I01
sbsg137
g0
(g143
g2
Ntp3746
Rp3747
(dp3748
g14
I00
sg29
I01
sg46
I4
sg15
I00
sbsg17
g52
sg41
g0
(g42
g2
Ntp3749
Rp3750
(dp3751
g14
I00
sg29
I01
sg46
g150
sg15
I00
sbsg138
g0
(g42
g2
Ntp3752
Rp3753
(dp3754
g14
I00
sg29
I01
sg46
g154
sg15
I00
sbsg16
I19
sg31
g2607
sg32
g155
sbsg263
g771
sS'ak4CaloL1L2L3Residual'
p3755
g0
(g7
g2
Ntp3756
Rp3757
(dp3758
g11
(lp3759
g13
asg14
I00
sg15
I00
sg16
I40
sg17
g18
sg13
g0
(g19
g20
(lp3760
g132
ag210
ag211
ag212
atp3761
Rp3762
(dp3763
g14
I00
sg29
I01
sg15
I00
sg30
I1
sbsg31
g3755
sg32
g33
sbsg1060
g1160
sg2259
g0
(g7
g2
Ntp3764
Rp3765
(dp3766
g11
(lp3767
g137
ag138
ag40
ag41
asg14
I00
sg15
I00
sg40
g0
(g42
g2
Ntp3768
Rp3769
(dp3770
g14
I00
sg29
I01
sg46
g100
sg15
I01
sbsg137
g0
(g143
g2
Ntp3771
Rp3772
(dp3773
g14
I00
sg29
I01
sg46
I4
sg15
I00
sbsg17
g52
sg41
g0
(g42
g2
Ntp3774
Rp3775
(dp3776
g14
I00
sg29
I01
sg46
g150
sg15
I00
sbsg138
g0
(g42
g2
Ntp3777
Rp3778
(dp3779
g14
I00
sg29
I01
sg46
g154
sg15
I00
sbsg16
I20
sg31
g2259
sg32
g155
sbsS'ak8PFL2L3'
p3780
g0
(g7
g2
Ntp3781
Rp3782
(dp3783
g11
(lp3784
g13
asg14
I00
sg15
I00
sg16
I40
sg17
g18
sg13
g0
(g19
g20
(lp3785
g126
ag127
atp3786
Rp3787
(dp3788
g14
I00
sg29
I01
sg15
I00
sg30
I1
sbsg31
g3780
sg32
g33
sbsg1180
g1182
sg1736
g0
(g7
g2
Ntp3789
Rp3790
(dp3791
g11
(lp3792
g40
ag41
asg14
I00
sg15
I00
sg40
g0
(g42
g2
Ntp3793
Rp3794
(dp3795
g14
I00
sg29
I01
sg46
g1130
sg15
I01
sbsg41
g0
(g42
g2
Ntp3796
Rp3797
(dp3798
g14
I00
sg29
I01
sg46
g304
sg15
I00
sbsg17
g52
sg16
I141
sg31
g1736
sg32
g105
sbsg1848
g0
(g7
g2
Ntp3799
Rp3800
(dp3801
g11
(lp3802
g39
ag40
ag41
asg14
I00
sg15
I00
sg40
g0
(g42
g2
Ntp3803
Rp3804
(dp3805
g14
I00
sg29
I01
sg46
g599
sg15
I00
sbsg41
g0
(g42
g2
Ntp3806
Rp3807
(dp3808
g14
I00
sg29
I01
sg46
g51
sg15
I00
sbsg17
g18
sg16
I40
sg39
g0
(g53
g2
Ntp3809
Rp3810
(dp3811
g14
I00
sg29
I01
sg15
I00
sg57
g91
sg61
g60
sg59
g60
sbsg31
g1848
sg32
g62
sbsg1039
g0
(g7
g2
Ntp3812
Rp3813
(dp3814
g11
(lp3815
g137
ag138
ag40
ag41
asg14
I00
sg15
I00
sg40
g0
(g42
g2
Ntp3816
Rp3817
(dp3818
g14
I00
sg29
I01
sg46
g1995
sg15
I01
sbsg137
g0
(g143
g2
Ntp3819
Rp3820
(dp3821
g14
I00
sg29
I01
sg46
I4
sg15
I00
sbsg17
g52
sg41
g0
(g42
g2
Ntp3822
Rp3823
(dp3824
g14
I00
sg29
I01
sg46
g150
sg15
I00
sbsg138
g0
(g42
g2
Ntp3825
Rp3826
(dp3827
g14
I00
sg29
I01
sg46
g154
sg15
I00
sbsg16
I14
sg31
g1039
sg32
g155
sbsg587
g0
(g7
g2
Ntp3828
Rp3829
(dp3830
g11
(lp3831
g40
ag41
asg14
I00
sg15
I00
sg40
g0
(g42
g2
Ntp3832
Rp3833
(dp3834
g14
I00
sg29
I01
sg46
g763
sg15
I01
sbsg41
g0
(g42
g2
Ntp3835
Rp3836
(dp3837
g14
I00
sg29
I01
sg46
g304
sg15
I00
sbsg17
g52
sg16
I154
sg31
g587
sg32
g105
sbsS'kt4CaloL1FastL2L3'
p3838
g0
(g7
g2
Ntp3839
Rp3840
(dp3841
g11
(lp3842
g13
asg14
I00
sg15
I00
sg16
I592
sg17
g52
sg13
g0
(g19
g20
(lp3843
g311
ag1153
ag1154
atp3844
Rp3845
(dp3846
g14
I00
sg29
I01
sg15
I00
sg30
I1
sbsg31
g3838
sg32
g33
sbsg1099
g0
(g7
g2
Ntp3847
Rp3848
(dp3849
g11
(lp3850
g40
ag41
asg14
I00
sg15
I00
sg40
g0
(g42
g2
Ntp3851
Rp3852
(dp3853
g14
I00
sg29
I01
sg46
g224
sg15
I01
sbsg41
g0
(g42
g2
Ntp3854
Rp3855
(dp3856
g14
I00
sg29
I01
sg46
g365
sg15
I00
sbsg17
g52
sg16
I95
sg31
g1099
sg32
g105
sbsg311
g0
(g7
g2
Ntp3857
Rp3858
(dp3859
g11
(lp3860
g39
ag40
ag41
asg14
I00
sg15
I00
sg40
g0
(g42
g2
Ntp3861
Rp3862
(dp3863
g14
I00
sg29
I01
sg46
g142
sg15
I00
sbsg41
g0
(g42
g2
Ntp3864
Rp3865
(dp3866
g14
I00
sg29
I01
sg46
g51
sg15
I00
sbsg17
g18
sg16
I40
sg39
g0
(g53
g2
Ntp3867
Rp3868
(dp3869
g14
I00
sg29
I01
sg15
I00
sg57
g58
sg61
g60
sg59
g60
sbsg31
g311
sg32
g62
sbsS'ak5PFCHSL1Fastjet'
p3870
g0
(g7
g2
Ntp3871
Rp3872
(dp3873
g11
(lp3874
g39
ag40
ag41
asg14
I00
sg15
I00
sg40
g0
(g42
g2
Ntp3875
Rp3876
(dp3877
g14
I00
sg29
I01
sg46
g1766
sg15
I01
sbsg41
g0
(g42
g2
Ntp3878
Rp3879
(dp3880
g14
I00
sg29
I01
sg46
g51
sg15
I00
sbsg17
g52
sg16
I55
sg39
g0
(g53
g2
Ntp3881
Rp3882
(dp3883
g14
I00
sg29
I01
sg15
I00
sg57
g91
sg59
g60
sg61
g60
sbsg31
g3870
sg32
g62
sbsg841
g0
(g7
g2
Ntp3884
Rp3885
(dp3886
g11
(lp3887
g40
ag41
asg14
I00
sg15
I00
sg40
g0
(g42
g2
Ntp3888
Rp3889
(dp3890
g14
I00
sg29
I01
sg46
g1995
sg15
I01
sbsg41
g0
(g42
g2
Ntp3891
Rp3892
(dp3893
g14
I00
sg29
I01
sg46
g104
sg15
I00
sbsg17
g52
sg16
I108
sg31
g841
sg32
g105
sbsS'ak4JPTL1FastL2L3'
p3894
g0
(g7
g2
Ntp3895
Rp3896
(dp3897
g11
(lp3898
g13
asg14
I00
sg15
I00
sg16
I40
sg17
g18
sg13
g0
(g19
g20
(lp3899
g722
ag23
ag24
atp3900
Rp3901
(dp3902
g14
I00
sg29
I01
sg15
I00
sg30
I1
sbsg31
g3894
sg32
g33
sbsg915
g0
(g7
g2
Ntp3903
Rp3904
(dp3905
g11
(lp3906
g40
ag41
asg14
I00
sg15
I00
sg40
g0
(g42
g2
Ntp3907
Rp3908
(dp3909
g14
I00
sg29
I01
sg46
g2687
sg15
I01
sbsg41
g0
(g42
g2
Ntp3910
Rp3911
(dp3912
g14
I00
sg29
I01
sg46
g365
sg15
I00
sbsg17
g52
sg16
I96
sg31
g915
sg32
g105
sbsg712
g0
(g7
g2
Ntp3913
Rp3914
(dp3915
g11
(lp3916
g137
ag138
ag40
ag41
asg14
I00
sg15
I00
sg40
g0
(g42
g2
Ntp3917
Rp3918
(dp3919
g14
I00
sg29
I01
sg46
g1269
sg15
I01
sbsg137
g0
(g143
g2
Ntp3920
Rp3921
(dp3922
g14
I00
sg29
I01
sg46
I4
sg15
I00
sbsg17
g52
sg41
g0
(g42
g2
Ntp3923
Rp3924
(dp3925
g14
I00
sg29
I01
sg46
g150
sg15
I00
sbsg138
g0
(g42
g2
Ntp3926
Rp3927
(dp3928
g14
I00
sg29
I01
sg46
g154
sg15
I00
sbsg16
I30
sg31
g712
sg32
g155
sbsS'ak6PFL2L3'
p3929
g0
(g7
g2
Ntp3930
Rp3931
(dp3932
g11
(lp3933
g13
asg14
I00
sg15
I00
sg16
I40
sg17
g18
sg13
g0
(g19
g20
(lp3934
g2628
ag2474
atp3935
Rp3936
(dp3937
g14
I00
sg29
I01
sg15
I00
sg30
I1
sbsg31
g3929
sg32
g33
sbsg645
g1274
sg312
g0
(g7
g2
Ntp3938
Rp3939
(dp3940
g11
(lp3941
g40
ag41
asg14
I00
sg15
I00
sg40
g0
(g42
g2
Ntp3942
Rp3943
(dp3944
g14
I00
sg29
I01
sg46
g1011
sg15
I01
sbsg41
g0
(g42
g2
Ntp3945
Rp3946
(dp3947
g14
I00
sg29
I01
sg46
g365
sg15
I00
sbsg17
g603
sg16
I72
sg31
g312
sg32
g105
sbsg1100
g1227
sS'StripCPEfromTrackAngleESProducer'
p3948
g0
(g7
g2
Ntp3949
Rp3950
(dp3951
g11
(lp3952
g3724
ag3280
ag3725
asg14
I00
sg15
I01
sg3725
g0
(g424
g2
Ntp3953
Rp3954
(dp3955
g14
I00
sg29
I01
sS'maxChgOneMIP'
p3956
g0
(g489
g2
Ntp3957
Rp3958
(dp3959
g14
I00
sg29
I01
sg46
F6000.0
sg15
I00
sbsS'mLC_P2'
p3960
g0
(g489
g2
Ntp3961
Rp3962
(dp3963
g14
I00
sg29
I01
sg46
F0.3
sg15
I00
sbsS'mLC_P1'
p3964
g0
(g489
g2
Ntp3965
Rp3966
(dp3967
g14
I00
sg29
I01
sg46
F0.618
sg15
I00
sbsS'mLC_P0'
p3968
g0
(g489
g2
Ntp3969
Rp3970
(dp3971
g14
I00
sg29
I01
sg46
F-0.326
sg15
I00
sbsS'useLegacyError'
p3972
g0
(g251
g2
Ntp3973
Rp3974
(dp3975
g14
I00
sg29
I01
sg46
I00
sg15
I00
sbsS'mTIB_P1'
p3976
g0
(g489
g2
Ntp3977
Rp3978
(dp3979
g14
I00
sg29
I01
sg46
F0.202
sg15
I00
sbsS'mTEC_P1'
p3980
g0
(g489
g2
Ntp3981
Rp3982
(dp3983
g14
I00
sg29
I01
sg46
F0.471
sg15
I00
sbsS'mTEC_P0'
p3984
g0
(g489
g2
Ntp3985
Rp3986
(dp3987
g14
I00
sg29
I01
sg46
F-1.885
sg15
I00
sbsS'mTOB_P0'
p3988
g0
(g489
g2
Ntp3989
Rp3990
(dp3991
g14
I00
sg29
I01
sg46
F-1.026
sg15
I00
sbsS'mTOB_P1'
p3992
g0
(g489
g2
Ntp3993
Rp3994
(dp3995
g14
I00
sg29
I01
sg46
F0.253
sg15
I00
sbsS'mTIB_P0'
p3996
g0
(g489
g2
Ntp3997
Rp3998
(dp3999
g14
I00
sg29
I01
sg46
F-0.742
sg15
I00
sbsg11
(lp4000
g3956
ag3960
ag3964
ag3968
ag3972
ag3980
ag3984
ag3988
ag3992
ag3996
ag3976
aS'mTID_P0'
p4001
aS'mTID_P1'
p4002
asg4001
g0
(g489
g2
Ntp4003
Rp4004
(dp4005
g14
I00
sg29
I01
sg46
F-1.427
sg15
I00
sbsg4002
g0
(g489
g2
Ntp4006
Rp4007
(dp4008
g14
I00
sg29
I01
sg46
F0.433
sg15
I00
sbsg15
I00
sbsg16
I4
sg3280
g0
(g42
g2
Ntp4009
Rp4010
(dp4011
g14
I00
sg29
I01
sg46
S'StripCPEfromTrackAngle'
p4012
sg15
I00
sbsg3724
g0
(g42
g2
Ntp4013
Rp4014
(dp4015
g14
I00
sg29
I01
sg46
g4012
sg15
I00
sbsg17
S'/cvmfs/cms.cern.ch/slc6_amd64_gcc530/cms/cmssw/CMSSW_8_0_6/python/RecoLocalTracker/SiStripRecHitConverter/StripCPEfromTrackAngle_cfi.py'
p4016
sg31
g3948
sg32
g3738
sbsg734
g0
(g7
g2
Ntp4017
Rp4018
(dp4019
g11
(lp4020
g233
ag234
ag235
ag40
ag41
asg14
I00
sg15
I00
sg40
g0
(g42
g2
Ntp4021
Rp4022
(dp4023
g14
I00
sg29
I01
sg46
g60
sg15
I00
sbsg233
g0
(g53
g2
Ntp4024
Rp4025
(dp4026
g14
I00
sg29
I01
sg15
I00
sg57
S'kt6CaloJetsSoftElectronTagInfos'
p4027
sg61
g60
sg59
g60
sbsg17
g52
sg41
g0
(g42
g2
Ntp4028
Rp4029
(dp4030
g14
I00
sg29
I01
sg46
g246
sg15
I00
sbsg234
g0
(g53
g2
Ntp4031
Rp4032
(dp4033
g14
I00
sg29
I01
sg15
I00
sg57
S'kt6CaloJetsSoftMuonTagInfos'
p4034
sg61
g60
sg59
g60
sbsg16
I172
sg235
g0
(g251
g2
Ntp4035
Rp4036
(dp4037
g14
I00
sg29
I01
sg46
I01
sg15
I00
sbsg31
g734
sg32
g255
sbsg1236
g1238
sS'ak10PFCHSL2L3Residual'
p4038
g0
(g7
g2
Ntp4039
Rp4040
(dp4041
g11
(lp4042
g13
asg14
I00
sg15
I00
sg16
I40
sg17
g18
sg13
g0
(g19
g20
(lp4043
g70
ag71
ag72
atp4044
Rp4045
(dp4046
g14
I00
sg29
I01
sg15
I00
sg30
I1
sbsg31
g4038
sg32
g33
sbsg1253
g1255
sg71
g0
(g7
g2
Ntp4047
Rp4048
(dp4049
g11
(lp4050
g40
ag41
asg14
I00
sg15
I00
sg40
g0
(g42
g2
Ntp4051
Rp4052
(dp4053
g14
I00
sg29
I01
sg46
g300
sg15
I01
sbsg41
g0
(g42
g2
Ntp4054
Rp4055
(dp4056
g14
I00
sg29
I01
sg46
g104
sg15
I00
sbsg17
g52
sg16
I127
sg31
g71
sg32
g105
sbsS'ak6PFL2L3Residual'
p4057
g0
(g7
g2
Ntp4058
Rp4059
(dp4060
g11
(lp4061
g13
asg14
I00
sg15
I00
sg16
I40
sg17
g18
sg13
g0
(g19
g20
(lp4062
g2628
ag2474
ag1671
atp4063
Rp4064
(dp4065
g14
I00
sg29
I01
sg15
I00
sg30
I1
sbsg31
g4057
sg32
g33
sbsS'ak2PFL2L3'
p4066
g0
(g7
g2
Ntp4067
Rp4068
(dp4069
g11
(lp4070
g13
asg14
I00
sg15
I00
sg16
I40
sg17
g18
sg13
g0
(g19
g20
(lp4071
g2260
ag92
atp4072
Rp4073
(dp4074
g14
I00
sg29
I01
sg15
I00
sg30
I1
sbsg31
g4066
sg32
g33
sbsS'ak7PFL1FastjetL2L3Residual'
p4075
g0
(g7
g2
Ntp4076
Rp4077
(dp4078
g11
(lp4079
g13
asg14
I00
sg15
I00
sg16
I40
sg17
g18
sg13
g0
(g19
g20
(lp4080
g3602
ag870
ag871
ag940
atp4081
Rp4082
(dp4083
g14
I00
sg29
I01
sg15
I00
sg30
I1
sbsg31
g4075
sg32
g33
sbsS'ic5CaloL2L3L6'
p4084
g0
(g7
g2
Ntp4085
Rp4086
(dp4087
g11
(lp4088
g13
asg14
I00
sg15
I00
sg16
I732
sg17
g52
sg13
g0
(g19
g20
(lp4089
g840
ag841
ag228
atp4090
Rp4091
(dp4092
g14
I00
sg29
I01
sg15
I00
sg30
I1
sbsg31
g4084
sg32
g33
sbsg70
g0
(g7
g2
Ntp4093
Rp4094
(dp4095
g11
(lp4096
g40
ag41
asg14
I00
sg15
I00
sg40
g0
(g42
g2
Ntp4097
Rp4098
(dp4099
g14
I00
sg29
I01
sg46
g300
sg15
I01
sbsg41
g0
(g42
g2
Ntp4100
Rp4101
(dp4102
g14
I00
sg29
I01
sg46
g365
sg15
I00
sbsg17
g52
sg16
I99
sg31
g70
sg32
g105
sbsS'EcalLaserCorrectionService'
p4103
g0
(g7
g2
Ntp4104
Rp4105
(dp4106
g11
(lp4107
sg14
I00
sg15
I00
sg16
I40
sg17
g18
sg31
g4103
sg32
g4103
sbsg1502
g1504
sg2888
g0
(g7
g2
Ntp4108
Rp4109
(dp4110
g11
(lp4111
g233
ag234
ag235
ag40
ag41
asg14
I00
sg15
I00
sg40
g0
(g42
g2
Ntp4112
Rp4113
(dp4114
g14
I00
sg29
I01
sg46
g60
sg15
I00
sbsg233
g0
(g53
g2
Ntp4115
Rp4116
(dp4117
g14
I00
sg29
I01
sg15
I00
sg57
S'ak7PFJetsSoftElectronTagInfos'
p4118
sg61
g60
sg59
g60
sbsg17
g52
sg41
g0
(g42
g2
Ntp4119
Rp4120
(dp4121
g14
I00
sg29
I01
sg46
g246
sg15
I00
sbsg234
g0
(g53
g2
Ntp4122
Rp4123
(dp4124
g14
I00
sg29
I01
sg15
I00
sg57
S'ak7PFJetsSoftMuonTagInfos'
p4125
sg61
g60
sg59
g60
sbsg16
I181
sg235
g0
(g251
g2
Ntp4126
Rp4127
(dp4128
g14
I00
sg29
I01
sg46
I00
sg15
I00
sbsg31
g2888
sg32
g255
sbsg2126
g0
(g7
g2
Ntp4129
Rp4130
(dp4131
g11
(lp4132
g39
ag40
ag41
asg14
I00
sg15
I00
sg40
g0
(g42
g2
Ntp4133
Rp4134
(dp4135
g14
I00
sg29
I01
sg46
g1050
sg15
I01
sbsg41
g0
(g42
g2
Ntp4136
Rp4137
(dp4138
g14
I00
sg29
I01
sg46
g51
sg15
I00
sbsg17
g52
sg16
I67
sg39
g0
(g53
g2
Ntp4139
Rp4140
(dp4141
g14
I00
sg29
I01
sg15
I00
sg57
g91
sg59
g60
sg61
g60
sbsg31
g2126
sg32
g62
sbsS'kt4CaloL2L3L6'
p4142
g0
(g7
g2
Ntp4143
Rp4144
(dp4145
g11
(lp4146
g13
asg14
I00
sg15
I00
sg16
I728
sg17
g52
sg13
g0
(g19
g20
(lp4147
g1153
ag1154
ag2055
atp4148
Rp4149
(dp4150
g14
I00
sg29
I01
sg15
I00
sg30
I1
sbsg31
g4142
sg32
g33
sbsS'ak7PFL2L3'
p4151
g0
(g7
g2
Ntp4152
Rp4153
(dp4154
g11
(lp4155
g13
asg14
I00
sg15
I00
sg16
I40
sg17
g18
sg13
g0
(g19
g20
(lp4156
g870
ag871
atp4157
Rp4158
(dp4159
g14
I00
sg29
I01
sg15
I00
sg30
I1
sbsg31
g4151
sg32
g33
sbsS'ak1PFL1L2L3Residual'
p4160
g0
(g7
g2
Ntp4161
Rp4162
(dp4163
g11
(lp4164
g13
asg14
I00
sg15
I00
sg16
I40
sg17
g18
sg13
g0
(g19
g20
(lp4165
g1104
ag928
ag929
ag930
atp4166
Rp4167
(dp4168
g14
I00
sg29
I01
sg15
I00
sg30
I1
sbsg31
g4160
sg32
g33
sbsS'ak7JPTL1L2L3Residual'
p4169
g0
(g7
g2
Ntp4170
Rp4171
(dp4172
g11
(lp4173
g13
asg14
I00
sg15
I00
sg16
I40
sg17
g18
sg13
g0
(g19
g20
(lp4174
g1298
ag197
ag198
ag199
ag200
atp4175
Rp4176
(dp4177
g14
I00
sg29
I01
sg15
I00
sg30
I1
sbsg31
g4169
sg32
g33
sbsg1283
g1285
sg2568
g0
(g7
g2
Ntp4178
Rp4179
(dp4180
g11
(lp4181
g137
ag138
ag40
ag41
asg14
I00
sg15
I00
sg40
g0
(g42
g2
Ntp4182
Rp4183
(dp4184
g14
I00
sg29
I01
sg46
g1359
sg15
I01
sbsg137
g0
(g143
g2
Ntp4185
Rp4186
(dp4187
g14
I00
sg29
I01
sg46
I4
sg15
I00
sbsg17
g603
sg41
g0
(g42
g2
Ntp4188
Rp4189
(dp4190
g14
I00
sg29
I01
sg46
g150
sg15
I00
sbsg138
g0
(g42
g2
Ntp4191
Rp4192
(dp4193
g14
I00
sg29
I01
sg46
g154
sg15
I00
sbsg16
I30
sg31
g2568
sg32
g155
sbsS'ak4CaloL1FastL2L3L6'
p4194
g0
(g7
g2
Ntp4195
Rp4196
(dp4197
g11
(lp4198
g13
asg14
I00
sg15
I00
sg16
I243
sg17
g603
sg13
g0
(g19
g20
(lp4199
g311
ag210
ag211
aS'ak4CaloL6SLB'
p4200
atp4201
Rp4202
(dp4203
g14
I00
sg29
I01
sg15
I00
sg30
I1
sbsg31
g4194
sg32
g33
sbsg2868
g0
(g7
g2
Ntp4204
Rp4205
(dp4206
g11
(lp4207
g39
ag40
ag41
asg14
I00
sg15
I00
sg40
g0
(g42
g2
Ntp4208
Rp4209
(dp4210
g14
I00
sg29
I01
sg46
g830
sg15
I01
sbsg41
g0
(g42
g2
Ntp4211
Rp4212
(dp4213
g14
I00
sg29
I01
sg46
g51
sg15
I00
sbsg17
g52
sg16
I49
sg39
g0
(g53
g2
Ntp4214
Rp4215
(dp4216
g14
I00
sg29
I01
sg15
I00
sg57
g91
sg59
g60
sg61
g60
sbsg31
g2868
sg32
g62
sbsS'ak1PFL1FastjetL2L3Residual'
p4217
g0
(g7
g2
Ntp4218
Rp4219
(dp4220
g11
(lp4221
g13
asg14
I00
sg15
I00
sg16
I40
sg17
g18
sg13
g0
(g19
g20
(lp4222
g1882
ag928
ag929
ag930
atp4223
Rp4224
(dp4225
g14
I00
sg29
I01
sg15
I00
sg30
I1
sbsg31
g4217
sg32
g33
sbsS'ak7PFL2L3Residual'
p4226
g0
(g7
g2
Ntp4227
Rp4228
(dp4229
g11
(lp4230
g13
asg14
I00
sg15
I00
sg16
I40
sg17
g18
sg13
g0
(g19
g20
(lp4231
g870
ag871
ag940
atp4232
Rp4233
(dp4234
g14
I00
sg29
I01
sg15
I00
sg30
I1
sbsg31
g4226
sg32
g33
sbsg1298
g1300
sg22
g0
(g7
g2
Ntp4235
Rp4236
(dp4237
g11
(lp4238
g3214
ag40
ag41
asg14
I00
sg15
I00
sg40
g0
(g42
g2
Ntp4239
Rp4240
(dp4241
g14
I00
sg29
I01
sg46
g2249
sg15
I00
sbsg41
g0
(g42
g2
Ntp4242
Rp4243
(dp4244
g14
I00
sg29
I01
sg46
g3221
sg15
I00
sbsg17
g18
sg16
I40
sg31
g22
sg32
g3222
sg3214
g0
(g42
g2
Ntp4245
Rp4246
(dp4247
g14
I00
sg29
I01
sg46
g132
sg15
I00
sbsbsg643
g0
(g7
g2
Ntp4248
Rp4249
(dp4250
g11
(lp4251
g39
ag40
ag41
asg14
I00
sg15
I00
sg40
g0
(g42
g2
Ntp4252
Rp4253
(dp4254
g14
I00
sg29
I01
sg46
g972
sg15
I01
sbsg41
g0
(g42
g2
Ntp4255
Rp4256
(dp4257
g14
I00
sg29
I01
sg46
g51
sg15
I00
sbsg17
g52
sg16
I54
sg39
g0
(g53
g2
Ntp4258
Rp4259
(dp4260
g14
I00
sg29
I01
sg15
I00
sg57
g91
sg59
g60
sg61
g60
sbsg31
g643
sg32
g62
sbsS'ak7PFCHSL1FastjetL2L3Residual'
p4261
g0
(g7
g2
Ntp4262
Rp4263
(dp4264
g11
(lp4265
g13
asg14
I00
sg15
I00
sg16
I40
sg17
g18
sg13
g0
(g19
g20
(lp4266
g76
ag656
ag657
ag2664
atp4267
Rp4268
(dp4269
g14
I00
sg29
I01
sg15
I00
sg30
I1
sbsg31
g4261
sg32
g33
sbsg2260
g0
(g7
g2
Ntp4270
Rp4271
(dp4272
g11
(lp4273
g40
ag41
asg14
I00
sg15
I00
sg40
g0
(g42
g2
Ntp4274
Rp4275
(dp4276
g14
I00
sg29
I01
sg46
g100
sg15
I01
sbsg41
g0
(g42
g2
Ntp4277
Rp4278
(dp4279
g14
I00
sg29
I01
sg46
g365
sg15
I00
sbsg17
g52
sg16
I84
sg31
g2260
sg32
g105
sbsg126
g0
(g7
g2
Ntp4280
Rp4281
(dp4282
g11
(lp4283
g40
ag41
asg14
I00
sg15
I00
sg40
g0
(g42
g2
Ntp4284
Rp4285
(dp4286
g14
I00
sg29
I01
sg46
g1269
sg15
I01
sbsg41
g0
(g42
g2
Ntp4287
Rp4288
(dp4289
g14
I00
sg29
I01
sg46
g365
sg15
I00
sbsg17
g52
sg16
I94
sg31
g126
sg32
g105
sbsS'ic5CaloL1FastL2L3L6'
p4290
g0
(g7
g2
Ntp4291
Rp4292
(dp4293
g11
(lp4294
g13
asg14
I00
sg15
I00
sg16
I752
sg17
g52
sg13
g0
(g19
g20
(lp4295
g1039
ag840
ag841
ag228
atp4296
Rp4297
(dp4298
g14
I00
sg29
I01
sg15
I00
sg30
I1
sbsg31
g4290
sg32
g33
sbsS'hcal_db_producer'
p4299
g0
(g7
g2
Ntp4300
Rp4301
(dp4302
g11
(lp4303
S'file'
p4304
aS'dump'
p4305
asg14
I00
sg15
I00
sg4305
g0
(g19
g20
(lp4306
g60
atp4307
Rp4308
(dp4309
g14
I00
sg29
I00
sg15
I00
sg30
I1
sbsg16
I40
sg17
g18
sg4304
g0
(g42
g2
Ntp4310
Rp4311
(dp4312
g14
I00
sg29
I00
sg46
g60
sg15
I00
sbsg31
g4299
sg32
S'HcalDbProducer'
p4313
sbsg1338
g1340
sS'ak2PFL1FastjetL2L3Residual'
p4314
g0
(g7
g2
Ntp4315
Rp4316
(dp4317
g11
(lp4318
g13
asg14
I00
sg15
I00
sg16
I40
sg17
g18
sg13
g0
(g19
g20
(lp4319
g2293
ag2260
ag92
ag2261
atp4320
Rp4321
(dp4322
g14
I00
sg29
I01
sg15
I00
sg30
I1
sbsg31
g4314
sg32
g33
sbsg1140
g1353
sS'ak6PFL1L2L3Residual'
p4323
g0
(g7
g2
Ntp4324
Rp4325
(dp4326
g11
(lp4327
g13
asg14
I00
sg15
I00
sg16
I40
sg17
g18
sg13
g0
(g19
g20
(lp4328
g3016
ag2628
ag2474
ag1671
atp4329
Rp4330
(dp4331
g14
I00
sg29
I01
sg15
I00
sg30
I1
sbsg31
g4323
sg32
g33
sbsS'ic5PFL2L3Residual'
p4332
g0
(g7
g2
Ntp4333
Rp4334
(dp4335
g11
(lp4336
g13
asg14
I00
sg15
I00
sg16
I40
sg17
g18
sg13
g0
(g19
g20
(lp4337
g263
ag264
ag265
atp4338
Rp4339
(dp4340
g14
I00
sg29
I01
sg15
I00
sg30
I1
sbsg31
g4332
sg32
g33
sbsS'ak1PFL2L3'
p4341
g0
(g7
g2
Ntp4342
Rp4343
(dp4344
g11
(lp4345
g13
asg14
I00
sg15
I00
sg16
I40
sg17
g18
sg13
g0
(g19
g20
(lp4346
g928
ag929
atp4347
Rp4348
(dp4349
g14
I00
sg29
I01
sg15
I00
sg30
I1
sbsg31
g4341
sg32
g33
sbsg1363
g1365
sg264
g1374
sg1383
g1385
sg1392
g1394
sS'ak4CaloL2L3L6'
p4350
g0
(g7
g2
Ntp4351
Rp4352
(dp4353
g11
(lp4354
g13
asg14
I00
sg15
I00
sg16
I237
sg17
g603
sg13
g0
(g19
g20
(lp4355
g210
ag211
ag4200
atp4356
Rp4357
(dp4358
g14
I00
sg29
I01
sg15
I00
sg30
I1
sbsg31
g4350
sg32
g33
sbsS'ak4JPTL1L2L3'
p4359
g0
(g7
g2
Ntp4360
Rp4361
(dp4362
g11
(lp4363
g13
asg14
I00
sg15
I00
sg16
I40
sg17
g18
sg13
g0
(g19
g20
(lp4364
g22
ag23
ag24
atp4365
Rp4366
(dp4367
g14
I00
sg29
I01
sg15
I00
sg30
I1
sbsg31
g4359
sg32
g33
sbsg960
g0
(g7
g2
Ntp4368
Rp4369
(dp4370
g11
(lp4371
g40
ag41
asg14
I00
sg15
I00
sg40
g0
(g42
g2
Ntp4372
Rp4373
(dp4374
g14
I00
sg29
I01
sg46
g47
sg15
I01
sbsg41
g0
(g42
g2
Ntp4375
Rp4376
(dp4377
g14
I00
sg29
I01
sg46
g365
sg15
I00
sbsg17
g52
sg16
I76
sg31
g960
sg32
g105
sbsS'ak5PFCHSL2L3'
p4378
g0
(g7
g2
Ntp4379
Rp4380
(dp4381
g11
(lp4382
g13
asg14
I00
sg15
I00
sg16
I40
sg17
g18
sg13
g0
(g19
g20
(lp4383
g184
ag185
atp4384
Rp4385
(dp4386
g14
I00
sg29
I01
sg15
I00
sg30
I1
sbsg31
g4378
sg32
g33
sbsg604
g606
sg928
g1512
sg930
g0
(g7
g2
Ntp4387
Rp4388
(dp4389
g11
(lp4390
g40
ag41
asg14
I00
sg15
I00
sg40
g0
(g42
g2
Ntp4391
Rp4392
(dp4393
g14
I00
sg29
I01
sg46
g1112
sg15
I01
sbsg41
g0
(g42
g2
Ntp4394
Rp4395
(dp4396
g14
I00
sg29
I01
sg46
g304
sg15
I00
sbsg17
g52
sg16
I138
sg31
g930
sg32
g105
sbsS'ak5PFCHSL1FastjetL2L3Residual'
p4397
g0
(g7
g2
Ntp4398
Rp4399
(dp4400
g11
(lp4401
g13
asg14
I00
sg15
I00
sg16
I40
sg17
g18
sg13
g0
(g19
g20
(lp4402
g3870
ag184
ag185
ag186
atp4403
Rp4404
(dp4405
g14
I00
sg29
I01
sg15
I00
sg30
I1
sbsg31
g4397
sg32
g33
sbsS'kt4CaloL1L2L3Residual'
p4406
g0
(g7
g2
Ntp4407
Rp4408
(dp4409
g11
(lp4410
g13
asg14
I00
sg15
I00
sg16
I40
sg17
g18
sg13
g0
(g19
g20
(lp4411
g1921
ag1153
ag1154
ag1155
atp4412
Rp4413
(dp4414
g14
I00
sg29
I01
sg15
I00
sg30
I1
sbsg31
g4406
sg32
g33
sbsS'ic5PFL2L3'
p4415
g0
(g7
g2
Ntp4416
Rp4417
(dp4418
g11
(lp4419
g13
asg14
I00
sg15
I00
sg16
I40
sg17
g18
sg13
g0
(g19
g20
(lp4420
g263
ag264
atp4421
Rp4422
(dp4423
g14
I00
sg29
I01
sg15
I00
sg30
I1
sbsg31
g4415
sg32
g33
sbsg4200
g0
(g7
g2
Ntp4424
Rp4425
(dp4426
g11
(lp4427
g233
ag234
ag235
ag40
ag41
asg14
I00
sg15
I00
sg40
g0
(g42
g2
Ntp4428
Rp4429
(dp4430
g14
I00
sg29
I01
sg46
g60
sg15
I00
sbsg233
g0
(g53
g2
Ntp4431
Rp4432
(dp4433
g14
I00
sg29
I01
sg15
I00
sg57
S'ak4CaloJetsSoftElectronTagInfos'
p4434
sg61
g60
sg59
g60
sbsg17
g18
sg41
g0
(g42
g2
Ntp4435
Rp4436
(dp4437
g14
I00
sg29
I01
sg46
g246
sg15
I00
sbsg234
g0
(g53
g2
Ntp4438
Rp4439
(dp4440
g14
I00
sg29
I01
sg15
I00
sg57
S'ak4CaloJetsSoftMuonTagInfos'
p4441
sg61
g60
sg59
g60
sbsg16
I40
sg235
g0
(g251
g2
Ntp4442
Rp4443
(dp4444
g14
I00
sg29
I01
sg46
I01
sg15
I00
sbsg31
g4200
sg32
g255
sbsg656
g1650
sS'ak3PFCHSL1L2L3Residual'
p4445
g0
(g7
g2
Ntp4446
Rp4447
(dp4448
g11
(lp4449
g13
asg14
I00
sg15
I00
sg16
I40
sg17
g18
sg13
g0
(g19
g20
(lp4450
g1236
ag797
ag798
ag799
atp4451
Rp4452
(dp4453
g14
I00
sg29
I01
sg15
I00
sg30
I1
sbsg31
g4445
sg32
g33
sbsg2174
g0
(g7
g2
Ntp4454
Rp4455
(dp4456
g11
(lp4457
g39
ag40
ag41
asg14
I00
sg15
I00
sg40
g0
(g42
g2
Ntp4458
Rp4459
(dp4460
g14
I00
sg29
I01
sg46
g277
sg15
I01
sbsg41
g0
(g42
g2
Ntp4461
Rp4462
(dp4463
g14
I00
sg29
I01
sg46
g51
sg15
I00
sbsg17
g52
sg16
I45
sg39
g0
(g53
g2
Ntp4464
Rp4465
(dp4466
g14
I00
sg29
I01
sg15
I00
sg57
g58
sg59
g60
sg61
g60
sbsg31
g2174
sg32
g62
sbsS'ak6PFCHSL2L3Residual'
p4467
g0
(g7
g2
Ntp4468
Rp4469
(dp4470
g11
(lp4471
g13
asg14
I00
sg15
I00
sg16
I40
sg17
g18
sg13
g0
(g19
g20
(lp4472
g288
ag289
ag2506
atp4473
Rp4474
(dp4475
g14
I00
sg29
I01
sg15
I00
sg30
I1
sbsg31
g4467
sg32
g33
sbsS'ak3PFCHSL1FastjetL2L3Residual'
p4476
g0
(g7
g2
Ntp4477
Rp4478
(dp4479
g11
(lp4480
g13
asg14
I00
sg15
I00
sg16
I40
sg17
g18
sg13
g0
(g19
g20
(lp4481
g1180
ag797
ag798
ag799
atp4482
Rp4483
(dp4484
g14
I00
sg29
I01
sg15
I00
sg30
I1
sbsg31
g4476
sg32
g33
sbsg210
g0
(g7
g2
Ntp4485
Rp4486
(dp4487
g11
(lp4488
g40
ag41
asg14
I00
sg15
I00
sg40
g0
(g42
g2
Ntp4489
Rp4490
(dp4491
g14
I00
sg29
I01
sg46
g142
sg15
I00
sbsg41
g0
(g42
g2
Ntp4492
Rp4493
(dp4494
g14
I00
sg29
I01
sg46
g365
sg15
I00
sbsg17
g18
sg16
I40
sg31
g210
sg32
g105
sbsg1212
g0
(g7
g2
Ntp4495
Rp4496
(dp4497
g11
(lp4498
g137
ag138
ag40
ag41
asg14
I00
sg15
I00
sg40
g0
(g42
g2
Ntp4499
Rp4500
(dp4501
g14
I00
sg29
I01
sg46
g972
sg15
I01
sbsg137
g0
(g143
g2
Ntp4502
Rp4503
(dp4504
g14
I00
sg29
I01
sg46
I4
sg15
I00
sbsg17
g52
sg41
g0
(g42
g2
Ntp4505
Rp4506
(dp4507
g14
I00
sg29
I01
sg46
g150
sg15
I00
sbsg138
g0
(g42
g2
Ntp4508
Rp4509
(dp4510
g14
I00
sg29
I01
sg46
g154
sg15
I00
sbsg16
I24
sg31
g1212
sg32
g155
sbsg916
g0
(g7
g2
Ntp4511
Rp4512
(dp4513
g11
(lp4514
g40
ag41
asg14
I00
sg15
I00
sg40
g0
(g42
g2
Ntp4515
Rp4516
(dp4517
g14
I00
sg29
I01
sg46
g2687
sg15
I01
sbsg41
g0
(g42
g2
Ntp4518
Rp4519
(dp4520
g14
I00
sg29
I01
sg46
g104
sg15
I00
sbsg17
g52
sg16
I124
sg31
g916
sg32
g105
sbsg657
g0
(g7
g2
Ntp4521
Rp4522
(dp4523
g11
(lp4524
g40
ag41
asg14
I00
sg15
I00
sg40
g0
(g42
g2
Ntp4525
Rp4526
(dp4527
g14
I00
sg29
I01
sg46
g84
sg15
I01
sbsg41
g0
(g42
g2
Ntp4528
Rp4529
(dp4530
g14
I00
sg29
I01
sg46
g104
sg15
I00
sbsg17
g52
sg16
I121
sg31
g657
sg32
g105
sbsg115
g0
(g7
g2
Ntp4531
Rp4532
(dp4533
g11
(lp4534
g40
ag41
asg14
I00
sg15
I00
sg40
g0
(g42
g2
Ntp4535
Rp4536
(dp4537
g14
I00
sg29
I01
sg46
g1050
sg15
I01
sbsg41
g0
(g42
g2
Ntp4538
Rp4539
(dp4540
g14
I00
sg29
I01
sg46
g304
sg15
I00
sbsg17
g52
sg16
I157
sg31
g115
sg32
g105
sbsg798
g0
(g7
g2
Ntp4541
Rp4542
(dp4543
g11
(lp4544
g40
ag41
asg14
I00
sg15
I00
sg40
g0
(g42
g2
Ntp4545
Rp4546
(dp4547
g14
I00
sg29
I01
sg46
g1188
sg15
I01
sbsg41
g0
(g42
g2
Ntp4548
Rp4549
(dp4550
g14
I00
sg29
I01
sg46
g104
sg15
I00
sbsg17
g52
sg16
I115
sg31
g798
sg32
g105
sbsS'ak9PFL1L2L3Residual'
p4551
g0
(g7
g2
Ntp4552
Rp4553
(dp4554
g11
(lp4555
g13
asg14
I00
sg15
I00
sg16
I40
sg17
g18
sg13
g0
(g19
g20
(lp4556
g2679
ag915
ag916
ag917
atp4557
Rp4558
(dp4559
g14
I00
sg29
I01
sg15
I00
sg30
I1
sbsg31
g4551
sg32
g33
sbssg2049
g2051
sg798
g4542
sg1710
g1712
sg1758
g1760
sg1795
g1797
sg1805
g1807
sg1814
g1816
sg1842
g1844
sg1862
g1864
sg3016
g3018
sg127
g1906
sg2352
g3553
sg1925
g1927
sg212
g2030
sg211
g2040
sg1693
g1695
sg2084
g2086
sg115
g4532
sg25
g2243
sg2284
g2286
sg2346
g2348
sg2261
g2357
sg657
g4522
sg799
g2385
sg1820
g2395
sg2419
g2421
sg3430
g3432
sg3462
g3464
sg2453
g2455
sg2474
g2476
sg2485
g2487
sg2499
g2501
sg1369
g2541
sg2562
g2564
sg2601
g2603
sg265
g2613
sg2459
g3141
sg2622
g2624
sg1665
g2949
sg210
g4486
sg2506
g2669
sg940
g2698
sS'_Process__vpsets'
p4560
(dp4561
sg1921
g2227
sg2745
g2747
sg2664
g2783
sS'patJetCorrections'
p4562
g0
(g1522
g2
Ntp4563
Rp4564
(dp4565
g14
I00
sg322
g0
(g323
g2
Ntp4566
Rp4567
(dp4568
g327
(lp4569
g0
(g329
g2
Ntp4570
Rp4571
(dp4572
g11
(lp4573
g334
ag335
ag336
ag337
ag338
ag339
ag340
ag341
ag342
ag343
asg14
I00
sg343
g0
(g42
g2
Ntp4574
Rp4575
(dp4576
g14
I00
sg29
I01
sg46
g347
sg15
I00
sbsg335
g0
(g251
g2
Ntp4577
Rp4578
(dp4579
g14
I00
sg29
I01
sg46
I00
sg15
I00
sbsg15
I00
sg334
g0
(g53
g2
Ntp4580
Rp4581
(dp4582
g14
I00
sg29
I01
sg15
I00
sg57
S'ak4PFJetsCHS'
p4583
sg61
g60
sg59
g60
sbsg17
S'/cvmfs/cms.cern.ch/slc6_amd64_gcc530/cms/cmssw/CMSSW_8_0_6/python/PhysicsTools/PatAlgos/recoLayer0/jetCorrFactors_cfi.py'
p4584
sg336
g0
(g42
g2
Ntp4585
Rp4586
(dp4587
g14
I00
sg29
I01
sg46
g51
sg15
I00
sbsg337
g0
(g53
g2
Ntp4588
Rp4589
(dp4590
g14
I00
sg29
I01
sg15
I00
sg57
g154
sg61
g60
sg59
g60
sbsg31
S'patJetCorrFactors'
p4591
sg338
g0
(g19
g20
(lp4592
g51
ag365
ag104
atp4593
Rp4594
(dp4595
g14
I00
sg29
I01
sg15
I00
sg30
I1
sbsg16
I41
sg339
g0
(g251
g2
Ntp4596
Rp4597
(dp4598
g14
I00
sg29
I01
sg46
I01
sg15
I00
sbsg340
g0
(g53
g2
Ntp4599
Rp4600
(dp4601
g14
I00
sg29
I01
sg15
I00
sg57
g91
sg61
g60
sg59
g60
sbsg341
g0
(g251
g2
Ntp4602
Rp4603
(dp4604
g14
I00
sg29
I01
sg46
I01
sg15
I00
sbsg342
g0
(g42
g2
Ntp4605
Rp4606
(dp4607
g14
I00
sg29
I01
sg46
g599
sg15
I00
sbsg32
g381
sbasbsg15
I00
sg31
g4562
sbsg2862
g2864
sS'_Process__psets'
p4608
(dp4609
S'maxEvents'
p4610
g0
(g424
g2
Ntp4611
Rp4612
(dp4613
g14
I00
sg29
I00
sg15
I00
sg11
(lp4614
S'input'
p4615
asg31
g4610
sg4615
g0
(g143
g2
Ntp4616
Rp4617
(dp4618
g14
I00
sg29
I00
sg46
I-1
sg15
I00
sbsbssg3046
g3048
sg2174
g4455
sg3087
g3089
sg961
g3154
sg2168
g2170
sg196
g1956
sg646
g3191
sg2679
g2681
sg24
g3311
sS'PoolSource'
p4619
g0
(cFWCore.ParameterSet.Modules
Source
p4620
g2
Ntp4621
Rp4622
(dp4623
g11
(lp4624
S'fileNames'
p4625
asg14
I00
sg15
I00
sg16
I175
sg17
g18
sg4625
g0
(g19
g20
(lp4626
S'/store/data/Run2016E/JetHT/MINIAOD/23Sep2016-v1/100000/0248DC22-B889-E611-B75F-0025905A60AA.root'
p4627
atp4628
Rp4629
(dp4630
g14
I00
sg29
I00
sg15
I00
sg30
I1
sbsg32
g4619
sbsg2460
g3348
sS'_Process__name'
p4631
S'myprocess'
p4632
sg3421
g3423
sg289
g3440
sg2888
g4109
sg3543
g3545
sg3571
g3573
sg1868
g3581
sg2792
g2794
sg3602
g3604
sg1978
g1980
sg184
g3656
sg1931
g3374
sg3681
g3683
sg3710
g3712
sg4445
g4447
sg3780
g3782
sg363
g331
sg311
g3858
sg3870
g3872
sg712
g3914
sg4038
g4040
sg2868
g4205
sS'_cloneToObjectDict'
p4633
(dp4634
I139911147279440
g1948
sI139911147769424
g663
sI139911147231248
g708
sI139911147189968
g1318
sI139911147456272
g1106
sI139911147961680
g2564
sI139911147669520
g4388
sI139911147690320
g2520
sI139911147190992
g4417
sI139911148230736
g4301
sI139911147232592
g1148
sI139911147192016
g3303
sI139911147767824
g3492
sI139911147958672
g2040
sI139911147569616
g1300
sI139911147639312
g3154
sI139911147188880
g1160
sI139911147279376
g4144
sI139911147689232
g294
sI139911147278480
g3573
sI139911147959696
g2633
sI139911147189904
g2104
sI139911147620560
g2726
sI139911147231504
g580
sI139911147190928
g2095
sI139911147457232
g1827
sI139911147670480
g2385
sI139911147232528
g2960
sI139911147190480
g3782
sI139911147961744
g1797
sI139911147642384
g1906
sI139911147191952
g924
sI139911147642576
g218
sI139911147618448
g1217
sI139911147229392
g4059
sI139911147455120
g2643
sI139911147279312
g1385
sI139911147938832
g4179
sI139911147229456
g4469
sI139911147893200
g4571
sI139911147640272
g824
sI139911147189840
g4068
sI139911147572560
g4249
sI139911147231440
g2941
sI139911147190864
g158
sI139911147940880
g3450
sI139911147621520
g3904
sI139911147232464
g307
sI139911147544912
g3018
sI139911147191888
g836
sI139911147458192
g4496
sI139911147939216
g2179
sI139911147671440
g2698
sI139911147229328
g180
sI139911147688656
g3691
sI139911147590288
g78
sI139911147279248
g192
sI139911147938768
g134
sI139911147619408
g1124
sI139911147230480
g4162
sI139911147278736
g2348
sI139911147669328
g2337
sI139911147231376
g4553
sI139911147960592
g4425
sI139911147571536
g2295
sI139911147800592
g1285
sI139911147641232
g1274
sI139911147190800
g3108
sI139911147592336
g4130
sI139911147940816
g3800
sI139911147232400
g2775
sI139911147961616
g3483
sI139911147190736
g1807
sI139911147191824
g814
sI139911147593360
g4369
sI139911147668560
g1374
sI139911147229264
g3251
sI139911147639120
g771
sI139911147454992
g1927
sI139911147279184
g2319
sI139911147230288
g4408
sI139911147667984
g4048
sI139911147189712
g4343
sI139911147280208
g169
sI139911147546512
g2924
sI139911147620368
g2824
sI139911147231312
g1094
sI139911147232336
g2151
sI139911147281232
g1569
sI139911147691088
g230
sI139911147961552
g3340
sI139911147641424
g2465
sI139911147191760
g3464
sI139911147800336
g4612
sI139911147941776
g3939
sI139911147454928
g4196
sI139911147668176
g2075
sI139911147279120
g2122
sI139911147230224
g3294
sI139911147640080
g2592
sI139911147229840
g3067
sI139911147189648
g1085
sI139911147455952
g3813
sI139911147689040
g3829
sI139911147190672
g1661
sI139911147457872
g1238
sI139911147547472
g3666
sI139911147621328
g3848
sI139911147232272
g1017
sI139911147961488
g1329
sI139911147690704
g4018
sI139911147191696
g2718
sI139911147671248
g2669
sI139911147961808
g4361
sI139911147569296
g2438
sI139911147454864
g2277
sI139911147279056
g2412
sI139911147619216
g4271
sI139911147230160
g4334
sI139911147670288
g2914
sI139911147669136
g1786
sI139911147280080
g2884
sI139911147231184
g2660
sI139911147641040
g4542
sI139911147190608
g1026
sI139911147456912
g3765
sI139911147232208
g1844
sI139911147961424
g3712
sI139911147232080
g1751
sI139911147548432
g2847
sI139911147355984
g331
sI139911147230352
g946
sI139911147622288
g3472
sI139911147233232
g4399
sI139911147231056
g2501
sI139911147638928
g2159
sI139911147232720
g3423
sI139911147188496
g877
sI139911147454800
g4352
sI139911147590032
g3604
sI139911147278992
g1365
sI139911147230096
g3242
sI139911147570256
g2834
sI139911147668368
g1044
sI139911147280016
g4292
sI139911147231120
g936
sI139911147571280
g4205
sI139911147190544
g1255
sI139911147592080
g1340
sI139911147670096
g3790
sI139911147940560
g3004
sI139911147232144
g1980
sI139911147961360
g206
sI139911147572304
g1182
sI139911147642000
g2573
sI139911147191568
g2555
sI139911147961296
g1504
sI139911147593104
g3211
sI139911147941584
g3201
sI139911147620176
g3656
sI139911147233168
g639
sI139911147642192
g4522
sI139911147689424
g2140
sI139911147570512
g4455
sI139911147690256
g2893
sI139911147454736
g718
sI139911147278928
g2512
sI139911147545232
g3116
sI139911147230032
g996
sI139911147457552
g2395
sI139911147279952
g728
sI139911147689808
g2613
sI139911147621136
g4281
sI139911147639888
g3885
sI139911147671056
g1673
sI139911147355856
g1524
sI139911147233104
g4478
sI139911147800080
g3567
sI139911147454672
g2004
sI139911147278864
g2455
sI139911147619024
g3097
sI139911147229968
g4040
sI139911147959184
g1005
sI139911147377680
g383
sI139911147689616
g4532
sI139911147189392
g1712
sI139911147547792
g3358
sI139911147668944
g1853
sI139911147279888
g2051
sI139911147546192
g3914
sI139911147230992
g4325
sI139911147640848
g2736
sI139911147190416
g652
sI139911147232016
g2132
sI139911147961232
g1898
sI139911147191440
g3432
sI139911147230416
g2368
sI139911147622096
g4094
sI139911147233040
g3048
sI139911147191504
g3322
sI139911147962256
g3183
sI139911147454608
g1136
sI139911147278800
g2969
sI139911147229904
g3331
sI139911147189328
g3133
sI139911147455632
g3259
sI139911147619600
g2764
sI139911147799952
g3276
sI139911147279824
g1290
sI139911147619984
g966
sI139911147190352
g4153
sI139911147691472
g4109
sI139911147669904
g2357
sI139911147547152
g1695
sI139911147231952
g3840
sI139911147961168
g2086
sI139911147768720
g3618
sI139911147641808
g3440
sI139911147279696
g2709
sI139911147191376
g866
sI139911147670864
g3701
sI139911147281872
g1531
sI139911147941392
g593
sI139911147232976
g1864
sI139911147962192
g3595
sI139911147688848
g3348
sI139911147769744
g3721
sI139911147454544
g2377
sI139911147589776
g3228
sI139911147667792
g782
sI139911147639696
g271
sI139911147189264
g805
sI139911147455568
g2227
sI139911147590800
g3553
sI139911147591056
g3075
sI139911147279760
g1056
sI139911147939280
g2979
sI139911147230864
g1208
sI139911147571024
g1884
sI139911148230544
g4105
sI139911147190288
g284
sI139911147456592
g3740
sI139911147591824
g2541
sI139911147940304
g3858
sI139911147620944
g1650
sI139911147231888
g3414
sI139911147961104
g3683
sI139911147572048
g2061
sI139911147191312
g1035
sI139911147592848
g1956
sI139911147959760
g1720
sI139911147548112
g978
sI139911147962128
g2816
sI139911147573072
g2487
sI139911148231248
g0
(cFWCore.ParameterSet.Modules
ESSource
p4635
g2
Ntp4636
Rp4637
(dp4638
g11
(lp4639
S'HERecalibration'
p4640
aS'toGet'
p4641
aS'GainWidthsForTrigPrims'
p4642
aS'HEreCalibCutoff'
p4643
aS'HFRecalibration'
p4644
aS'iLumi'
p4645
aS'testHFQIE10'
p4646
asg14
I00
sg15
I00
sg16
I18
sg4640
g0
(g251
g2
Ntp4647
Rp4648
(dp4649
g14
I00
sg29
I01
sg46
I00
sg15
I00
sbsg4641
g0
(g19
g20
(lp4650
S'GainWidths'
p4651
atp4652
Rp4653
(dp4654
g14
I00
sg29
I00
sg15
I00
sg30
I1
sbsg4642
g0
(g251
g2
Ntp4655
Rp4656
(dp4657
g14
I00
sg29
I01
sg46
I00
sg15
I00
sbsg4643
g0
(g489
g2
Ntp4658
Rp4659
(dp4660
g14
I00
sg29
I01
sg46
F20.0
sg15
I00
sbsg4644
g0
(g251
g2
Ntp4661
Rp4662
(dp4663
g14
I00
sg29
I01
sg46
I00
sg15
I00
sbsg17
S'/cvmfs/cms.cern.ch/slc6_amd64_gcc530/cms/cmssw/CMSSW_8_0_6/python/CalibCalorimetry/HcalPlugins/Hcal_Conditions_forGlobalTag_cff.py'
p4664
sg31
S'es_hardcode'
p4665
sg4645
g0
(g489
g2
Ntp4666
Rp4667
(dp4668
g14
I00
sg29
I01
sg46
F-1.0
sg15
I00
sbsg4646
g0
(g251
g2
Ntp4669
Rp4670
(dp4671
g14
I00
sg29
I01
sg46
I00
sg15
I00
sbsg32
S'HcalHardcodeCalibrations'
p4672
sbsI139911147642768
g4512
sI139911147278672
g121
sI139911147618832
g1512
sI139911147229776
g911
sI139911147958992
g3311
sI139911147569936
g36
sI139911147668752
g628
sI139911147189776
g3089
sI139911148229520
g0
(g4635
g2
Ntp4673
Rp4674
(dp4675
g11
(lp4676
S'DBParameters'
p4677
aS'connect'
p4678
aS'globaltag'
p4679
aS'RefreshEachRun'
p4680
aS'pfnPrefix'
p4681
aS'snapshotTime'
p4682
ag4641
aS'pfnPostfix'
p4683
aS'RefreshAlways'
p4684
aS'ReconnectEachRun'
p4685
aS'RefreshOpenIOVs'
p4686
aS'DumpStat'
p4687
asg14
I00
sg17
S'/cvmfs/cms.cern.ch/slc6_amd64_gcc530/cms/cmssw/CMSSW_8_0_6/python/CondCore/ESSources/CondDBESSource_cfi.py'
p4688
sg15
I01
sg4679
g0
(g42
g2
Ntp4689
Rp4690
(dp4691
g14
I00
sg29
I01
sg46
S'80X_dataRun2_2016SeptRepro_v7'
p4692
sg15
I01
sbsg4680
g0
(g251
g2
Ntp4693
Rp4694
(dp4695
g14
I00
sg29
I00
sg46
I00
sg15
I00
sbsg4681
g0
(g42
g2
Ntp4696
Rp4697
(dp4698
g14
I00
sg29
I00
sg46
g60
sg15
I00
sbsg4682
g0
(g42
g2
Ntp4699
Rp4700
(dp4701
g14
I00
sg29
I01
sg46
g60
sg15
I00
sbsg4641
g0
(g1415
g20
(lp4702
tp4703
Rp4704
(dp4705
g14
I00
sg29
I01
sg15
I00
sg30
I1
sbsg4683
g0
(g42
g2
Ntp4706
Rp4707
(dp4708
g14
I00
sg29
I00
sg46
g60
sg15
I00
sbsg4677
g0
(g424
g2
Ntp4709
Rp4710
(dp4711
g14
I00
sg29
I01
sS'authenticationPath'
p4712
g0
(g42
g2
Ntp4713
Rp4714
(dp4715
g14
I00
sg29
I00
sg46
g60
sg15
I00
sbsg15
I00
sS'messageLevel'
p4716
g0
(g143
g2
Ntp4717
Rp4718
(dp4719
g14
I00
sg29
I00
sg46
I0
sg15
I00
sbsg11
(lp4720
g4716
aS'security'
p4721
aS'authenticationSystem'
p4722
ag4712
asg4721
g0
(g42
g2
Ntp4723
Rp4724
(dp4725
g14
I00
sg29
I00
sg46
g60
sg15
I00
sbsg4722
g0
(g143
g2
Ntp4726
Rp4727
(dp4728
g14
I00
sg29
I00
sg46
I0
sg15
I00
sbsbsg4684
g0
(g251
g2
Ntp4729
Rp4730
(dp4731
g14
I00
sg29
I00
sg46
I00
sg15
I00
sbsg16
I19
sg4678
g0
(g42
g2
Ntp4732
Rp4733
(dp4734
g14
I00
sg29
I01
sg46
S'frontier://FrontierProd/CMS_CONDITIONS'
p4735
sg15
I00
sbsg4685
g0
(g251
g2
Ntp4736
Rp4737
(dp4738
g14
I00
sg29
I00
sg46
I00
sg15
I00
sbsg31
S'GlobalTag'
p4739
sg4686
g0
(g251
g2
Ntp4740
Rp4741
(dp4742
g14
I00
sg29
I00
sg46
I00
sg15
I00
sbsg4687
g0
(g251
g2
Ntp4743
Rp4744
(dp4745
g14
I00
sg29
I00
sg46
I00
sg15
I00
sbsg32
S'PoolDBESSource'
p4746
sbsI139911147231824
g4171
sI139911147961040
g3396
sI139911147379536
g320
sI139911147191248
g1742
sI139911147230800
g4447
sI139911147941264
g4486
sI139911147621904
g1969
sI139911147232848
g2864
sI139911147962064
g9
sI139911147801872
g1394
sI139911147192272
g793
sI139911147691856
g606
sI139911147278608
g4263
sI139911147229520
g4228
sI139911147688464
g1227
sI139911147279632
g3405
sI139911147591312
g3141
sI139911147619792
g1684
sI139911147230736
g1816
sI139911147959952
g2243
sI139911147941328
g1353
sI139911147190160
g4380
sI139911147669712
g1937
sI139911147231760
g258
sI139911147960976
g3374
sI139911147280336
g4564
sI139911147641616
g2476
sI139911147191184
g1917
sI139911147230928
g1778
sI139911147232784
g4219
sI139911147962000
g2329
sI139911147959632
g2030
sI139911147190224
g3931
sI139911147192208
g2421
sI139911147458512
g1760
sI139911147667600
g2949
sI139911147278544
g4077
sI139911147229648
g2794
sI139911147639504
g1196
sI139911147279568
g3545
sI139911147545872
g740
sI139911147280144
g2286
sI139911147229712
g2013
sI139911147230672
g2022
sI139911147230544
g2603
sI139911147190096
g1076
sI139911147800720
g2196
sI139911147191632
g2756
sI139911147620752
g1065
sI139911147231696
g108
sI139911147379408
g481
sI139911147191120
g955
sI139911147670672
g3191
sI139911147640656
g3056
sI139911147621712
g899
sI139911147961936
g2747
sI139911147192144
g1731
sI139911147232912
g4316
sI139911147798608
g3950
sI139911147618640
g2873
sI139911147229584
g2996
sI139911147958800
g2308
sI139911147590544
g3034
sI139911147279504
g4086
sI139911147545552
g848
sI139911147280272
g2113
sI139911147230608
g2255
sI139911147688080
g2783
sI139911147570768
g1989
sI139911147640464
g94
sI139911147190032
g2430
sI139911147591568
g757
sI139911147546832
g2681
sI139911147231632
g2584
sI139911147571792
g3581
sI139911148231312
g0
(cFWCore.ParameterSet.Modules
ESPrefer
p4747
g2
Ntp4748
Rp4749
(dp4750
g11
(lp4751
sg14
I00
sg15
I00
sS'_targetLabel'
p4752
g4665
sg16
I73
sg17
g18
sg31
S'es_prefer_hcalHardcode'
p4753
sg32
g4672
sbsI139911147191056
g3165
sI139911147592592
g2802
sI139911147962320
g3896
sI139911147232656
g2170
sI139911147961872
g3757
sI139911147940048
g4236
sI139911147572816
g3872
sI139911147192080
g3174
sI139911147231568
g65
sI139911147593616
g1873
sI139911147278416
g2624
sI139911147688272
g1263
sI139911147958736
g2266
ssg4142
g4144
sg2568
g4179
sg4217
g4219
sg22
g4236
sg643
g4249
sg2260
g4271
sg2410
g2412
sg4299
g4301
sg1323
g2736
sg2994
g2996
sg4350
g4352
sg930
g4388
sg4397
g4399
sg1155
g1853
sg917
g3691
sS'_Process__filters'
p4754
(dp4755
sg1153
g1873
sg4084
g4086
sg1212
g4496
sg1671
g1673
sg797
g1684
sS'_Process__sequences'
p4756
(dp4757
g1521
g1524
sg4562
g4564
ssg1729
g1731
sg1749
g1751
sg1776
g1778
sg2253
g2255
sg2716
g2718
sg1825
g1827
sg1882
g1884
sg1896
g1898
sg2055
g2520
sg916
g4512
sg1987
g1989
sg2002
g2004
sg3616
g3618
sg2011
g2013
sg2020
g2022
sg2111
g2113
sg2130
g2132
sg2149
g2151
sg113
g2159
sS'_Process__producers'
p4758
(dp4759
g1551
g1531
sg1583
g1569
sg363
g331
sg409
g383
sg4591
g4571
ssg4739
g4674
sg2293
g2295
sS'MessageLogger'
p4760
g0
(cFWCore.ParameterSet.Modules
Service
p4761
g2
Ntp4762
Rp4763
(dp4764
g14
I00
sS'suppressInfo'
p4765
g0
(g19
g20
(lp4766
tp4767
Rp4768
(dp4769
g14
I00
sg29
I00
sg15
I00
sg30
I1
sbsS'suppressDebug'
p4770
g0
(g19
g20
(lp4771
tp4772
Rp4773
(dp4774
g14
I00
sg29
I00
sg15
I00
sg30
I1
sbsS'cout'
p4775
g0
(g424
g2
Ntp4776
Rp4777
(dp4778
g14
I00
sg29
I00
sS'placeholder'
p4779
g0
(g251
g2
Ntp4780
Rp4781
(dp4782
g14
I00
sg29
I00
sg46
I01
sg15
I00
sbsg15
I00
sg11
(lp4783
g4779
asbsg16
I10
sS'debugModules'
p4784
g0
(g19
g20
(lp4785
tp4786
Rp4787
(dp4788
g14
I00
sg29
I00
sg15
I00
sg30
I1
sbsg32
g4760
sS'fwkJobReports'
p4789
g0
(g19
g20
(lp4790
S'FrameworkJobReport'
p4791
atp4792
Rp4793
(dp4794
g14
I00
sg29
I00
sg15
I00
sg30
I1
sbsg11
(lp4795
g4765
aS'debugs'
p4796
ag4770
ag4775
aS'cerr_stats'
p4797
aS'warnings'
p4798
aS'default'
p4799
aS'statistics'
p4800
aS'cerr'
p4801
ag4791
aS'suppressWarning'
p4802
aS'errors'
p4803
aS'destinations'
p4804
ag4784
aS'infos'
p4805
aS'categories'
p4806
ag4789
asg4800
g0
(g19
g20
(lp4807
g4797
atp4808
Rp4809
(dp4810
g14
I00
sg29
I00
sg15
I00
sg30
I1
sbsg17
g18
sg4804
g0
(g19
g20
(lp4811
g4798
ag4803
ag4805
ag4796
ag4775
ag4801
atp4812
Rp4813
(dp4814
g14
I00
sg29
I00
sg15
I00
sg30
I1
sbsg4796
g0
(g424
g2
Ntp4815
Rp4816
(dp4817
g14
I00
sg29
I00
sg4779
g0
(g251
g2
Ntp4818
Rp4819
(dp4820
g14
I00
sg29
I00
sg46
I01
sg15
I00
sbsg15
I00
sg11
(lp4821
g4779
asbsg4798
g0
(g424
g2
Ntp4822
Rp4823
(dp4824
g14
I00
sg29
I00
sg4779
g0
(g251
g2
Ntp4825
Rp4826
(dp4827
g14
I00
sg29
I00
sg46
I01
sg15
I00
sbsg15
I00
sg11
(lp4828
g4779
asbsg4803
g0
(g424
g2
Ntp4829
Rp4830
(dp4831
g14
I00
sg29
I00
sg4779
g0
(g251
g2
Ntp4832
Rp4833
(dp4834
g14
I00
sg29
I00
sg46
I01
sg15
I00
sbsg15
I00
sg11
(lp4835
g4779
asbsg4791
g0
(g424
g2
Ntp4836
Rp4837
(dp4838
g14
I00
sg29
I00
sg15
I00
sg4799
g0
(g424
g2
Ntp4839
Rp4840
(dp4841
g14
I00
sg29
I00
sS'limit'
p4842
g0
(g143
g2
Ntp4843
Rp4844
(dp4845
g14
I00
sg29
I00
sg46
I0
sg15
I00
sbsg15
I00
sg11
(lp4846
g4842
asbsS'FwkJob'
p4847
g0
(g424
g2
Ntp4848
Rp4849
(dp4850
g14
I00
sg29
I00
sg15
I00
sg4842
g0
(g143
g2
Ntp4851
Rp4852
(dp4853
g14
I00
sg29
I00
sg46
I10000000
sg15
I00
sbsg11
(lp4854
S'optionalPSet'
p4855
ag4842
asg4855
g0
(g251
g2
Ntp4856
Rp4857
(dp4858
g14
I00
sg29
I00
sg46
I01
sg15
I00
sbsbsg11
(lp4859
g4799
ag4855
ag4847
asg4855
g0
(g251
g2
Ntp4860
Rp4861
(dp4862
g14
I00
sg29
I00
sg46
I01
sg15
I00
sbsbsg4802
g0
(g19
g20
(lp4863
tp4864
Rp4865
(dp4866
g14
I00
sg29
I00
sg15
I00
sg30
I1
sbsg4805
g0
(g424
g2
Ntp4867
Rp4868
(dp4869
g14
I00
sg29
I00
sg15
I00
sS'Root_NoDictionary'
p4870
g0
(g424
g2
Ntp4871
Rp4872
(dp4873
g14
I00
sg29
I00
sg15
I00
sg4842
g0
(g143
g2
Ntp4874
Rp4875
(dp4876
g14
I00
sg29
I00
sg46
I0
sg15
I00
sbsg11
(lp4877
g4855
ag4842
asg4855
g0
(g251
g2
Ntp4878
Rp4879
(dp4880
g14
I00
sg29
I00
sg46
I01
sg15
I00
sbsbsg11
(lp4881
g4855
ag4870
ag4779
asg4855
g0
(g251
g2
Ntp4882
Rp4883
(dp4884
g14
I00
sg29
I00
sg46
I01
sg15
I00
sbsg4779
g0
(g251
g2
Ntp4885
Rp4886
(dp4887
g14
I00
sg29
I00
sg46
I01
sg15
I00
sbsbsg4806
g0
(g19
g20
(lp4888
g4847
aS'FwkReport'
p4889
aS'FwkSummary'
p4890
ag4870
atp4891
Rp4892
(dp4893
g14
I00
sg29
I00
sg15
I00
sg30
I1
sbsg15
I00
sg4797
g0
(g424
g2
Ntp4894
Rp4895
(dp4896
g14
I00
sg29
I00
sg15
I00
sg4855
g0
(g251
g2
Ntp4897
Rp4898
(dp4899
g14
I00
sg29
I00
sg46
I01
sg15
I00
sbsg11
(lp4900
S'threshold'
p4901
aS'output'
p4902
ag4855
asg4901
g0
(g42
g2
Ntp4903
Rp4904
(dp4905
g14
I00
sg29
I00
sg46
S'WARNING'
p4906
sg15
I00
sbsg4902
g0
(g42
g2
Ntp4907
Rp4908
(dp4909
g14
I00
sg29
I00
sg46
g4801
sg15
I00
sbsbsg4799
g0
(g424
g2
Ntp4910
Rp4911
(dp4912
g14
I00
sg29
I00
sg15
I00
sg11
(lp4913
sbsg4801
g0
(g424
g2
Ntp4914
Rp4915
(dp4916
g14
I00
sg29
I00
sS'noTimeStamps'
p4917
g0
(g251
g2
Ntp4918
Rp4919
(dp4920
g14
I00
sg29
I00
sg46
I00
sg15
I00
sbsg4889
g0
(g424
g2
Ntp4921
Rp4922
(dp4923
g14
I00
sg29
I00
sg15
I01
sS'reportEvery'
p4924
g0
(g143
g2
Ntp4925
Rp4926
(dp4927
g14
I00
sg29
I00
sg46
I1000
sg15
I01
sbsg4842
g0
(g143
g2
Ntp4928
Rp4929
(dp4930
g14
I00
sg29
I00
sg46
I10000000
sg15
I00
sbsg11
(lp4931
g4924
ag4855
ag4842
asg4855
g0
(g251
g2
Ntp4932
Rp4933
(dp4934
g14
I00
sg29
I00
sg46
I01
sg15
I00
sbsbsg15
I00
sg4799
g0
(g424
g2
Ntp4935
Rp4936
(dp4937
g14
I00
sg29
I00
sg4842
g0
(g143
g2
Ntp4938
Rp4939
(dp4940
g14
I00
sg29
I00
sg46
I10000000
sg15
I00
sbsg15
I00
sg11
(lp4941
g4842
asbsg4870
g0
(g424
g2
Ntp4942
Rp4943
(dp4944
g14
I00
sg29
I00
sg15
I00
sg4842
g0
(g143
g2
Ntp4945
Rp4946
(dp4947
g14
I00
sg29
I00
sg46
I0
sg15
I00
sbsg11
(lp4948
g4855
ag4842
asg4855
g0
(g251
g2
Ntp4949
Rp4950
(dp4951
g14
I00
sg29
I00
sg46
I01
sg15
I00
sbsbsS'INFO'
p4952
g0
(g424
g2
Ntp4953
Rp4954
(dp4955
g14
I00
sg29
I00
sg4842
g0
(g143
g2
Ntp4956
Rp4957
(dp4958
g14
I00
sg29
I00
sg46
I0
sg15
I00
sbsg15
I00
sg11
(lp4959
g4842
asbsg4855
g0
(g251
g2
Ntp4960
Rp4961
(dp4962
g14
I00
sg29
I00
sg46
I01
sg15
I00
sbsg4847
g0
(g424
g2
Ntp4963
Rp4964
(dp4965
g14
I00
sg29
I00
sg15
I00
sg4842
g0
(g143
g2
Ntp4966
Rp4967
(dp4968
g14
I00
sg29
I00
sg46
I0
sg15
I00
sbsg11
(lp4969
g4855
ag4842
asg4855
g0
(g251
g2
Ntp4970
Rp4971
(dp4972
g14
I00
sg29
I00
sg46
I01
sg15
I00
sbsbsg4890
g0
(g424
g2
Ntp4973
Rp4974
(dp4975
g14
I00
sg29
I00
sg15
I00
sg4924
g0
(g143
g2
Ntp4976
Rp4977
(dp4978
g14
I00
sg29
I00
sg46
I1
sg15
I00
sbsg4842
g0
(g143
g2
Ntp4979
Rp4980
(dp4981
g14
I00
sg29
I00
sg46
I10000000
sg15
I00
sbsg11
(lp4982
g4924
ag4855
ag4842
asg4855
g0
(g251
g2
Ntp4983
Rp4984
(dp4985
g14
I00
sg29
I00
sg46
I01
sg15
I00
sbsbsg11
(lp4986
g4952
ag4917
ag4889
ag4799
ag4870
ag4901
ag4847
ag4890
ag4855
asg4901
g0
(g42
g2
Ntp4987
Rp4988
(dp4989
g14
I00
sg29
I00
sg46
g4952
sg15
I00
sbsbsbsg2375
g2377
sg2428
g2430
sg2510
g2512
sg1946
g1948
sg2553
g2555
sg871
g2573
sg2582
g2584
sg4323
g4325
sg4075
g4077
sg2120
g2122
sg2939
g2941
sg2658
g2660
sg288
g2726
sg262
g2438
sg1322
g2764
sg2323
g2802
sS'_Process__esprefers'
p4990
(dp4991
g4753
g4749
ssg3131
g3133
sS'_Process__analyzers'
p4992
(dp4993
g577
g481
ssS'_Process__paths'
p4994
g0
(cFWCore.ParameterSet.DictTypes
SortedKeysDict
p4995
c__builtin__
dict
p4996
(dp4997
g317
g320
stp4998
Rp4999
(dp5000
S'list'
p5001
(lp5002
g317
asbsg125
g3034
sg3065
g3067
sg2505
g3116
sg1551
g1531
sg3163
g3165
sg2275
g2277
sg842
g2337
sg1099
g3848
sg732
g3259
sg3274
g3276
sg3292
g3294
sg1098
g2924
sg3320
g3322
sS'_Process__essources'
p5003
(dp5004
g4665
g4637
sg4739
g4674
ssg3329
g3331
sg69
g3358
sg3394
g3396
sg3412
g3414
sg3490
g3492
sg3403
g3405
sg3565
g3567
sg3593
g3595
sg1000
g2140
sg584
g3666
sg2366
g2368
sg2607
g3740
sg1583
g1569
sg2259
g3765
sg1736
g3790
sg1039
g3813
sg3894
g3896
sg915
g3904
sg3929
g3931
sg4753
g4749
sg3948
g3950
sS'_Process__aliases'
p5005
(dp5006
sg70
g4094
sg4103
g4105
sg4160
g4162
sg4169
g4171
sg4194
g4196
sg126
g4281
sS'_Process__subProcesses'
p5007
(lp5008
sg577
g481
sg4332
g4334
sg1294
g2893
sS'_Process__schedule'
p5009
Nsg4200
g4425
sg4476
g4478
sS'_Process__partialschedules'
p5010
(dp5011
sg2608
g3097
sg1334
g1720
sg4066
g4068
sS'_Process__source'
p5012
g4622
sg818
g1786
sS'TFileService'
p5013
g0
(g4761
g2
Ntp5014
Rp5015
(dp5016
g11
(lp5017
S'fileName'
p5018
asg14
I00
sg15
I00
sg16
I10
sg17
g18
sg5018
g0
(g42
g2
Ntp5019
Rp5020
(dp5021
g14
I00
sg29
I01
sg46
S'flatTree.root'
p5022
sg15
I00
sbsg32
g5013
sbsS'source'
p5023
g4622
sg1935
g1937
sg585
g1969
sg2059
g2061
sg163
g2075
sg2093
g2095
sg2102
g2104
sg1915
g1917
sg1801
g2179
sg2194
g2196
sg2327
g2329
sg3181
g3183
sS'_Process__endpaths'
p5024
g0
(g4995
g4996
(dp5025
tp5026
Rp5027
(dp5028
g5001
(lp5029
sbsg23
g3201
sg2754
g2756
sg4226
g4228
sS'_Process__services'
p5030
(dp5031
g4760
g4763
sg5013
g5015
ssg929
g2592
sg4467
g4469
sg1142
g2633
sg959
g2643
sg4415
g4417
sg4314
g4316
sg4406
g4408
sg185
g2465
sg2814
g2816
sg2628
g2824
sg2317
g2319
sg1152
g2834
sS'_Process__outputmodules'
p5032
(dp5033
sg1821
g2914
sg841
g3885
sg2958
g2960
sg2967
g2969
sg2977
g2979
sg173
g3004
sg1141
g2266
sg1735
g3056
sg2973
g3075
sg3172
g3174
sg197
g3211
sg3226
g3228
sg3249
g3251
sg2882
g2884
sg3301
g3303
sg3106
g3108
sg3338
g3340
sg4610
g4612
sg722
g3450
sg4665
g4637
sg1848
g3800
sg162
g3472
sg3481
g3483
sg960
g4369
sg4551
g4553
sg4591
g4571
sg2707
g2709
sg186
g3701
sg3719
g3721
sg3240
g3242
sg3755
g3757
sg2773
g2775
sg840
g2873
sg587
g3829
sg312
g3939
sg734
g4018
sg71
g4048
sg4057
g4059
sg2126
g4130
sg4151
g4153
sg4261
g4263
sg3838
g3840
sg4290
g4292
sg1740
g1742
sg112
g2847
sg4341
g4343
sg4359
g4361
sg4378
g4380
sg1333
g2308
sb.